ARM GAS  C:\Users\Benson\AppData\Local\Temp\ccHty0UJ.s 			page 1


   1              		.cpu cortex-m4
   2              		.eabi_attribute 27, 1
   3              		.eabi_attribute 28, 1
   4              		.eabi_attribute 20, 1
   5              		.eabi_attribute 21, 1
   6              		.eabi_attribute 23, 3
   7              		.eabi_attribute 24, 1
   8              		.eabi_attribute 25, 1
   9              		.eabi_attribute 26, 1
  10              		.eabi_attribute 30, 6
  11              		.eabi_attribute 34, 1
  12              		.eabi_attribute 18, 4
  13              		.file	"stream_buffer.c"
  14              		.text
  15              	.Ltext0:
  16              		.cfi_sections	.debug_frame
  17              		.section	.text.xStreamBufferGenericCreate,"ax",%progbits
  18              		.align	1
  19              		.global	xStreamBufferGenericCreate
  20              		.arch armv7e-m
  21              		.syntax unified
  22              		.thumb
  23              		.thumb_func
  24              		.fpu fpv4-sp-d16
  26              	xStreamBufferGenericCreate:
  27              	.LFB5:
  28              		.file 1 "./Drivers/FreeRTOS/stream_buffer.c"
   1:./Drivers/FreeRTOS/stream_buffer.c **** /*
   2:./Drivers/FreeRTOS/stream_buffer.c ****  * FreeRTOS Kernel V10.4.6
   3:./Drivers/FreeRTOS/stream_buffer.c ****  * Copyright (C) 2021 Amazon.com, Inc. or its affiliates.  All Rights Reserved.
   4:./Drivers/FreeRTOS/stream_buffer.c ****  *
   5:./Drivers/FreeRTOS/stream_buffer.c ****  * SPDX-License-Identifier: MIT
   6:./Drivers/FreeRTOS/stream_buffer.c ****  *
   7:./Drivers/FreeRTOS/stream_buffer.c ****  * Permission is hereby granted, free of charge, to any person obtaining a copy of
   8:./Drivers/FreeRTOS/stream_buffer.c ****  * this software and associated documentation files (the "Software"), to deal in
   9:./Drivers/FreeRTOS/stream_buffer.c ****  * the Software without restriction, including without limitation the rights to
  10:./Drivers/FreeRTOS/stream_buffer.c ****  * use, copy, modify, merge, publish, distribute, sublicense, and/or sell copies of
  11:./Drivers/FreeRTOS/stream_buffer.c ****  * the Software, and to permit persons to whom the Software is furnished to do so,
  12:./Drivers/FreeRTOS/stream_buffer.c ****  * subject to the following conditions:
  13:./Drivers/FreeRTOS/stream_buffer.c ****  *
  14:./Drivers/FreeRTOS/stream_buffer.c ****  * The above copyright notice and this permission notice shall be included in all
  15:./Drivers/FreeRTOS/stream_buffer.c ****  * copies or substantial portions of the Software.
  16:./Drivers/FreeRTOS/stream_buffer.c ****  *
  17:./Drivers/FreeRTOS/stream_buffer.c ****  * THE SOFTWARE IS PROVIDED "AS IS", WITHOUT WARRANTY OF ANY KIND, EXPRESS OR
  18:./Drivers/FreeRTOS/stream_buffer.c ****  * IMPLIED, INCLUDING BUT NOT LIMITED TO THE WARRANTIES OF MERCHANTABILITY, FITNESS
  19:./Drivers/FreeRTOS/stream_buffer.c ****  * FOR A PARTICULAR PURPOSE AND NONINFRINGEMENT. IN NO EVENT SHALL THE AUTHORS OR
  20:./Drivers/FreeRTOS/stream_buffer.c ****  * COPYRIGHT HOLDERS BE LIABLE FOR ANY CLAIM, DAMAGES OR OTHER LIABILITY, WHETHER
  21:./Drivers/FreeRTOS/stream_buffer.c ****  * IN AN ACTION OF CONTRACT, TORT OR OTHERWISE, ARISING FROM, OUT OF OR IN
  22:./Drivers/FreeRTOS/stream_buffer.c ****  * CONNECTION WITH THE SOFTWARE OR THE USE OR OTHER DEALINGS IN THE SOFTWARE.
  23:./Drivers/FreeRTOS/stream_buffer.c ****  *
  24:./Drivers/FreeRTOS/stream_buffer.c ****  * https://www.FreeRTOS.org
  25:./Drivers/FreeRTOS/stream_buffer.c ****  * https://github.com/FreeRTOS
  26:./Drivers/FreeRTOS/stream_buffer.c ****  *
  27:./Drivers/FreeRTOS/stream_buffer.c ****  */
  28:./Drivers/FreeRTOS/stream_buffer.c **** 
  29:./Drivers/FreeRTOS/stream_buffer.c **** /* Standard includes. */
  30:./Drivers/FreeRTOS/stream_buffer.c **** #include <stdint.h>
ARM GAS  C:\Users\Benson\AppData\Local\Temp\ccHty0UJ.s 			page 2


  31:./Drivers/FreeRTOS/stream_buffer.c **** #include <string.h>
  32:./Drivers/FreeRTOS/stream_buffer.c **** 
  33:./Drivers/FreeRTOS/stream_buffer.c **** /* Defining MPU_WRAPPERS_INCLUDED_FROM_API_FILE prevents task.h from redefining
  34:./Drivers/FreeRTOS/stream_buffer.c ****  * all the API functions to use the MPU wrappers.  That should only be done when
  35:./Drivers/FreeRTOS/stream_buffer.c ****  * task.h is included from an application file. */
  36:./Drivers/FreeRTOS/stream_buffer.c **** #define MPU_WRAPPERS_INCLUDED_FROM_API_FILE
  37:./Drivers/FreeRTOS/stream_buffer.c **** 
  38:./Drivers/FreeRTOS/stream_buffer.c **** /* FreeRTOS includes. */
  39:./Drivers/FreeRTOS/stream_buffer.c **** #include "FreeRTOS.h"
  40:./Drivers/FreeRTOS/stream_buffer.c **** #include "task.h"
  41:./Drivers/FreeRTOS/stream_buffer.c **** #include "stream_buffer.h"
  42:./Drivers/FreeRTOS/stream_buffer.c **** 
  43:./Drivers/FreeRTOS/stream_buffer.c **** #if ( configUSE_TASK_NOTIFICATIONS != 1 )
  44:./Drivers/FreeRTOS/stream_buffer.c ****     #error configUSE_TASK_NOTIFICATIONS must be set to 1 to build stream_buffer.c
  45:./Drivers/FreeRTOS/stream_buffer.c **** #endif
  46:./Drivers/FreeRTOS/stream_buffer.c **** 
  47:./Drivers/FreeRTOS/stream_buffer.c **** /* Lint e961, e9021 and e750 are suppressed as a MISRA exception justified
  48:./Drivers/FreeRTOS/stream_buffer.c ****  * because the MPU ports require MPU_WRAPPERS_INCLUDED_FROM_API_FILE to be defined
  49:./Drivers/FreeRTOS/stream_buffer.c ****  * for the header files above, but not in this file, in order to generate the
  50:./Drivers/FreeRTOS/stream_buffer.c ****  * correct privileged Vs unprivileged linkage and placement. */
  51:./Drivers/FreeRTOS/stream_buffer.c **** #undef MPU_WRAPPERS_INCLUDED_FROM_API_FILE /*lint !e961 !e750 !e9021. */
  52:./Drivers/FreeRTOS/stream_buffer.c **** 
  53:./Drivers/FreeRTOS/stream_buffer.c **** /* If the user has not provided application specific Rx notification macros,
  54:./Drivers/FreeRTOS/stream_buffer.c ****  * or #defined the notification macros away, then provide default implementations
  55:./Drivers/FreeRTOS/stream_buffer.c ****  * that uses task notifications. */
  56:./Drivers/FreeRTOS/stream_buffer.c **** /*lint -save -e9026 Function like macros allowed and needed here so they can be overridden. */
  57:./Drivers/FreeRTOS/stream_buffer.c **** #ifndef sbRECEIVE_COMPLETED
  58:./Drivers/FreeRTOS/stream_buffer.c ****     #define sbRECEIVE_COMPLETED( pxStreamBuffer )                         \
  59:./Drivers/FreeRTOS/stream_buffer.c ****     vTaskSuspendAll();                                                    \
  60:./Drivers/FreeRTOS/stream_buffer.c ****     {                                                                     \
  61:./Drivers/FreeRTOS/stream_buffer.c ****         if( ( pxStreamBuffer )->xTaskWaitingToSend != NULL )              \
  62:./Drivers/FreeRTOS/stream_buffer.c ****         {                                                                 \
  63:./Drivers/FreeRTOS/stream_buffer.c ****             ( void ) xTaskNotify( ( pxStreamBuffer )->xTaskWaitingToSend, \
  64:./Drivers/FreeRTOS/stream_buffer.c ****                                   ( uint32_t ) 0,                         \
  65:./Drivers/FreeRTOS/stream_buffer.c ****                                   eNoAction );                            \
  66:./Drivers/FreeRTOS/stream_buffer.c ****             ( pxStreamBuffer )->xTaskWaitingToSend = NULL;                \
  67:./Drivers/FreeRTOS/stream_buffer.c ****         }                                                                 \
  68:./Drivers/FreeRTOS/stream_buffer.c ****     }                                                                     \
  69:./Drivers/FreeRTOS/stream_buffer.c ****     ( void ) xTaskResumeAll();
  70:./Drivers/FreeRTOS/stream_buffer.c **** #endif /* sbRECEIVE_COMPLETED */
  71:./Drivers/FreeRTOS/stream_buffer.c **** 
  72:./Drivers/FreeRTOS/stream_buffer.c **** #ifndef sbRECEIVE_COMPLETED_FROM_ISR
  73:./Drivers/FreeRTOS/stream_buffer.c ****     #define sbRECEIVE_COMPLETED_FROM_ISR( pxStreamBuffer,                            \
  74:./Drivers/FreeRTOS/stream_buffer.c ****                                           pxHigherPriorityTaskWoken )                \
  75:./Drivers/FreeRTOS/stream_buffer.c ****     {                                                                                \
  76:./Drivers/FreeRTOS/stream_buffer.c ****         UBaseType_t uxSavedInterruptStatus;                                          \
  77:./Drivers/FreeRTOS/stream_buffer.c ****                                                                                      \
  78:./Drivers/FreeRTOS/stream_buffer.c ****         uxSavedInterruptStatus = ( UBaseType_t ) portSET_INTERRUPT_MASK_FROM_ISR();  \
  79:./Drivers/FreeRTOS/stream_buffer.c ****         {                                                                            \
  80:./Drivers/FreeRTOS/stream_buffer.c ****             if( ( pxStreamBuffer )->xTaskWaitingToSend != NULL )                     \
  81:./Drivers/FreeRTOS/stream_buffer.c ****             {                                                                        \
  82:./Drivers/FreeRTOS/stream_buffer.c ****                 ( void ) xTaskNotifyFromISR( ( pxStreamBuffer )->xTaskWaitingToSend, \
  83:./Drivers/FreeRTOS/stream_buffer.c ****                                              ( uint32_t ) 0,                         \
  84:./Drivers/FreeRTOS/stream_buffer.c ****                                              eNoAction,                              \
  85:./Drivers/FreeRTOS/stream_buffer.c ****                                              pxHigherPriorityTaskWoken );            \
  86:./Drivers/FreeRTOS/stream_buffer.c ****                 ( pxStreamBuffer )->xTaskWaitingToSend = NULL;                       \
  87:./Drivers/FreeRTOS/stream_buffer.c ****             }                                                                        \
ARM GAS  C:\Users\Benson\AppData\Local\Temp\ccHty0UJ.s 			page 3


  88:./Drivers/FreeRTOS/stream_buffer.c ****         }                                                                            \
  89:./Drivers/FreeRTOS/stream_buffer.c ****         portCLEAR_INTERRUPT_MASK_FROM_ISR( uxSavedInterruptStatus );                 \
  90:./Drivers/FreeRTOS/stream_buffer.c ****     }
  91:./Drivers/FreeRTOS/stream_buffer.c **** #endif /* sbRECEIVE_COMPLETED_FROM_ISR */
  92:./Drivers/FreeRTOS/stream_buffer.c **** 
  93:./Drivers/FreeRTOS/stream_buffer.c **** /* If the user has not provided an application specific Tx notification macro,
  94:./Drivers/FreeRTOS/stream_buffer.c ****  * or #defined the notification macro away, them provide a default implementation
  95:./Drivers/FreeRTOS/stream_buffer.c ****  * that uses task notifications. */
  96:./Drivers/FreeRTOS/stream_buffer.c **** #ifndef sbSEND_COMPLETED
  97:./Drivers/FreeRTOS/stream_buffer.c ****     #define sbSEND_COMPLETED( pxStreamBuffer )                               \
  98:./Drivers/FreeRTOS/stream_buffer.c ****     vTaskSuspendAll();                                                       \
  99:./Drivers/FreeRTOS/stream_buffer.c ****     {                                                                        \
 100:./Drivers/FreeRTOS/stream_buffer.c ****         if( ( pxStreamBuffer )->xTaskWaitingToReceive != NULL )              \
 101:./Drivers/FreeRTOS/stream_buffer.c ****         {                                                                    \
 102:./Drivers/FreeRTOS/stream_buffer.c ****             ( void ) xTaskNotify( ( pxStreamBuffer )->xTaskWaitingToReceive, \
 103:./Drivers/FreeRTOS/stream_buffer.c ****                                   ( uint32_t ) 0,                            \
 104:./Drivers/FreeRTOS/stream_buffer.c ****                                   eNoAction );                               \
 105:./Drivers/FreeRTOS/stream_buffer.c ****             ( pxStreamBuffer )->xTaskWaitingToReceive = NULL;                \
 106:./Drivers/FreeRTOS/stream_buffer.c ****         }                                                                    \
 107:./Drivers/FreeRTOS/stream_buffer.c ****     }                                                                        \
 108:./Drivers/FreeRTOS/stream_buffer.c ****     ( void ) xTaskResumeAll();
 109:./Drivers/FreeRTOS/stream_buffer.c **** #endif /* sbSEND_COMPLETED */
 110:./Drivers/FreeRTOS/stream_buffer.c **** 
 111:./Drivers/FreeRTOS/stream_buffer.c **** #ifndef sbSEND_COMPLETE_FROM_ISR
 112:./Drivers/FreeRTOS/stream_buffer.c ****     #define sbSEND_COMPLETE_FROM_ISR( pxStreamBuffer, pxHigherPriorityTaskWoken )       \
 113:./Drivers/FreeRTOS/stream_buffer.c ****     {                                                                                   \
 114:./Drivers/FreeRTOS/stream_buffer.c ****         UBaseType_t uxSavedInterruptStatus;                                             \
 115:./Drivers/FreeRTOS/stream_buffer.c ****                                                                                         \
 116:./Drivers/FreeRTOS/stream_buffer.c ****         uxSavedInterruptStatus = ( UBaseType_t ) portSET_INTERRUPT_MASK_FROM_ISR();     \
 117:./Drivers/FreeRTOS/stream_buffer.c ****         {                                                                               \
 118:./Drivers/FreeRTOS/stream_buffer.c ****             if( ( pxStreamBuffer )->xTaskWaitingToReceive != NULL )                     \
 119:./Drivers/FreeRTOS/stream_buffer.c ****             {                                                                           \
 120:./Drivers/FreeRTOS/stream_buffer.c ****                 ( void ) xTaskNotifyFromISR( ( pxStreamBuffer )->xTaskWaitingToReceive, \
 121:./Drivers/FreeRTOS/stream_buffer.c ****                                              ( uint32_t ) 0,                            \
 122:./Drivers/FreeRTOS/stream_buffer.c ****                                              eNoAction,                                 \
 123:./Drivers/FreeRTOS/stream_buffer.c ****                                              pxHigherPriorityTaskWoken );               \
 124:./Drivers/FreeRTOS/stream_buffer.c ****                 ( pxStreamBuffer )->xTaskWaitingToReceive = NULL;                       \
 125:./Drivers/FreeRTOS/stream_buffer.c ****             }                                                                           \
 126:./Drivers/FreeRTOS/stream_buffer.c ****         }                                                                               \
 127:./Drivers/FreeRTOS/stream_buffer.c ****         portCLEAR_INTERRUPT_MASK_FROM_ISR( uxSavedInterruptStatus );                    \
 128:./Drivers/FreeRTOS/stream_buffer.c ****     }
 129:./Drivers/FreeRTOS/stream_buffer.c **** #endif /* sbSEND_COMPLETE_FROM_ISR */
 130:./Drivers/FreeRTOS/stream_buffer.c **** /*lint -restore (9026) */
 131:./Drivers/FreeRTOS/stream_buffer.c **** 
 132:./Drivers/FreeRTOS/stream_buffer.c **** /* The number of bytes used to hold the length of a message in the buffer. */
 133:./Drivers/FreeRTOS/stream_buffer.c **** #define sbBYTES_TO_STORE_MESSAGE_LENGTH    ( sizeof( configMESSAGE_BUFFER_LENGTH_TYPE ) )
 134:./Drivers/FreeRTOS/stream_buffer.c **** 
 135:./Drivers/FreeRTOS/stream_buffer.c **** /* Bits stored in the ucFlags field of the stream buffer. */
 136:./Drivers/FreeRTOS/stream_buffer.c **** #define sbFLAGS_IS_MESSAGE_BUFFER          ( ( uint8_t ) 1 ) /* Set if the stream buffer was create
 137:./Drivers/FreeRTOS/stream_buffer.c **** #define sbFLAGS_IS_STATICALLY_ALLOCATED    ( ( uint8_t ) 2 ) /* Set if the stream buffer was create
 138:./Drivers/FreeRTOS/stream_buffer.c **** 
 139:./Drivers/FreeRTOS/stream_buffer.c **** /*-----------------------------------------------------------*/
 140:./Drivers/FreeRTOS/stream_buffer.c **** 
 141:./Drivers/FreeRTOS/stream_buffer.c **** /* Structure that hold state information on the buffer. */
 142:./Drivers/FreeRTOS/stream_buffer.c **** typedef struct StreamBufferDef_t                 /*lint !e9058 Style convention uses tag. */
 143:./Drivers/FreeRTOS/stream_buffer.c **** {
 144:./Drivers/FreeRTOS/stream_buffer.c ****     volatile size_t xTail;                       /* Index to the next item to read within the buffe
ARM GAS  C:\Users\Benson\AppData\Local\Temp\ccHty0UJ.s 			page 4


 145:./Drivers/FreeRTOS/stream_buffer.c ****     volatile size_t xHead;                       /* Index to the next item to write within the buff
 146:./Drivers/FreeRTOS/stream_buffer.c ****     size_t xLength;                              /* The length of the buffer pointed to by pucBuffe
 147:./Drivers/FreeRTOS/stream_buffer.c ****     size_t xTriggerLevelBytes;                   /* The number of bytes that must be in the stream 
 148:./Drivers/FreeRTOS/stream_buffer.c ****     volatile TaskHandle_t xTaskWaitingToReceive; /* Holds the handle of a task waiting for data, or
 149:./Drivers/FreeRTOS/stream_buffer.c ****     volatile TaskHandle_t xTaskWaitingToSend;    /* Holds the handle of a task waiting to send data
 150:./Drivers/FreeRTOS/stream_buffer.c ****     uint8_t * pucBuffer;                         /* Points to the buffer itself - that is - the RAM
 151:./Drivers/FreeRTOS/stream_buffer.c ****     uint8_t ucFlags;
 152:./Drivers/FreeRTOS/stream_buffer.c **** 
 153:./Drivers/FreeRTOS/stream_buffer.c ****     #if ( configUSE_TRACE_FACILITY == 1 )
 154:./Drivers/FreeRTOS/stream_buffer.c ****         UBaseType_t uxStreamBufferNumber; /* Used for tracing purposes. */
 155:./Drivers/FreeRTOS/stream_buffer.c ****     #endif
 156:./Drivers/FreeRTOS/stream_buffer.c **** } StreamBuffer_t;
 157:./Drivers/FreeRTOS/stream_buffer.c **** 
 158:./Drivers/FreeRTOS/stream_buffer.c **** /*
 159:./Drivers/FreeRTOS/stream_buffer.c ****  * The number of bytes available to be read from the buffer.
 160:./Drivers/FreeRTOS/stream_buffer.c ****  */
 161:./Drivers/FreeRTOS/stream_buffer.c **** static size_t prvBytesInBuffer( const StreamBuffer_t * const pxStreamBuffer ) PRIVILEGED_FUNCTION;
 162:./Drivers/FreeRTOS/stream_buffer.c **** 
 163:./Drivers/FreeRTOS/stream_buffer.c **** /*
 164:./Drivers/FreeRTOS/stream_buffer.c ****  * Add xCount bytes from pucData into the pxStreamBuffer's data storage area.
 165:./Drivers/FreeRTOS/stream_buffer.c ****  * This function does not update the buffer's xHead pointer, so multiple writes
 166:./Drivers/FreeRTOS/stream_buffer.c ****  * may be chained together "atomically". This is useful for Message Buffers where
 167:./Drivers/FreeRTOS/stream_buffer.c ****  * the length and data bytes are written in two separate chunks, and we don't want
 168:./Drivers/FreeRTOS/stream_buffer.c ****  * the reader to see the buffer as having grown until after all data is copied over.
 169:./Drivers/FreeRTOS/stream_buffer.c ****  * This function takes a custom xHead value to indicate where to write to (necessary
 170:./Drivers/FreeRTOS/stream_buffer.c ****  * for chaining) and returns the the resulting xHead position.
 171:./Drivers/FreeRTOS/stream_buffer.c ****  * To mark the write as complete, manually set the buffer's xHead field with the
 172:./Drivers/FreeRTOS/stream_buffer.c ****  * returned xHead from this function.
 173:./Drivers/FreeRTOS/stream_buffer.c ****  */
 174:./Drivers/FreeRTOS/stream_buffer.c **** static size_t prvWriteBytesToBuffer( StreamBuffer_t * const pxStreamBuffer,
 175:./Drivers/FreeRTOS/stream_buffer.c ****                                      const uint8_t * pucData,
 176:./Drivers/FreeRTOS/stream_buffer.c ****                                      size_t xCount,
 177:./Drivers/FreeRTOS/stream_buffer.c ****                                      size_t xHead ) PRIVILEGED_FUNCTION;
 178:./Drivers/FreeRTOS/stream_buffer.c **** 
 179:./Drivers/FreeRTOS/stream_buffer.c **** /*
 180:./Drivers/FreeRTOS/stream_buffer.c ****  * If the stream buffer is being used as a message buffer, then reads an entire
 181:./Drivers/FreeRTOS/stream_buffer.c ****  * message out of the buffer.  If the stream buffer is being used as a stream
 182:./Drivers/FreeRTOS/stream_buffer.c ****  * buffer then read as many bytes as possible from the buffer.
 183:./Drivers/FreeRTOS/stream_buffer.c ****  * prvReadBytesFromBuffer() is called to actually extract the bytes from the
 184:./Drivers/FreeRTOS/stream_buffer.c ****  * buffer's data storage area.
 185:./Drivers/FreeRTOS/stream_buffer.c ****  */
 186:./Drivers/FreeRTOS/stream_buffer.c **** static size_t prvReadMessageFromBuffer( StreamBuffer_t * pxStreamBuffer,
 187:./Drivers/FreeRTOS/stream_buffer.c ****                                         void * pvRxData,
 188:./Drivers/FreeRTOS/stream_buffer.c ****                                         size_t xBufferLengthBytes,
 189:./Drivers/FreeRTOS/stream_buffer.c ****                                         size_t xBytesAvailable ) PRIVILEGED_FUNCTION;
 190:./Drivers/FreeRTOS/stream_buffer.c **** 
 191:./Drivers/FreeRTOS/stream_buffer.c **** /*
 192:./Drivers/FreeRTOS/stream_buffer.c ****  * If the stream buffer is being used as a message buffer, then writes an entire
 193:./Drivers/FreeRTOS/stream_buffer.c ****  * message to the buffer.  If the stream buffer is being used as a stream
 194:./Drivers/FreeRTOS/stream_buffer.c ****  * buffer then write as many bytes as possible to the buffer.
 195:./Drivers/FreeRTOS/stream_buffer.c ****  * prvWriteBytestoBuffer() is called to actually send the bytes to the buffer's
 196:./Drivers/FreeRTOS/stream_buffer.c ****  * data storage area.
 197:./Drivers/FreeRTOS/stream_buffer.c ****  */
 198:./Drivers/FreeRTOS/stream_buffer.c **** static size_t prvWriteMessageToBuffer( StreamBuffer_t * const pxStreamBuffer,
 199:./Drivers/FreeRTOS/stream_buffer.c ****                                        const void * pvTxData,
 200:./Drivers/FreeRTOS/stream_buffer.c ****                                        size_t xDataLengthBytes,
 201:./Drivers/FreeRTOS/stream_buffer.c ****                                        size_t xSpace,
ARM GAS  C:\Users\Benson\AppData\Local\Temp\ccHty0UJ.s 			page 5


 202:./Drivers/FreeRTOS/stream_buffer.c ****                                        size_t xRequiredSpace ) PRIVILEGED_FUNCTION;
 203:./Drivers/FreeRTOS/stream_buffer.c **** 
 204:./Drivers/FreeRTOS/stream_buffer.c **** /*
 205:./Drivers/FreeRTOS/stream_buffer.c ****  * Copies xCount bytes from the pxStreamBuffer's data storage area to pucData.
 206:./Drivers/FreeRTOS/stream_buffer.c ****  * This function does not update the buffer's xTail pointer, so multiple reads
 207:./Drivers/FreeRTOS/stream_buffer.c ****  * may be chained together "atomically". This is useful for Message Buffers where
 208:./Drivers/FreeRTOS/stream_buffer.c ****  * the length and data bytes are read in two separate chunks, and we don't want
 209:./Drivers/FreeRTOS/stream_buffer.c ****  * the writer to see the buffer as having more free space until after all data is
 210:./Drivers/FreeRTOS/stream_buffer.c ****  * copied over, especially if we have to abort the read due to insufficient receiving space.
 211:./Drivers/FreeRTOS/stream_buffer.c ****  * This function takes a custom xTail value to indicate where to read from (necessary
 212:./Drivers/FreeRTOS/stream_buffer.c ****  * for chaining) and returns the the resulting xTail position.
 213:./Drivers/FreeRTOS/stream_buffer.c ****  * To mark the read as complete, manually set the buffer's xTail field with the
 214:./Drivers/FreeRTOS/stream_buffer.c ****  * returned xTail from this function.
 215:./Drivers/FreeRTOS/stream_buffer.c ****  */
 216:./Drivers/FreeRTOS/stream_buffer.c **** static size_t prvReadBytesFromBuffer( StreamBuffer_t * pxStreamBuffer,
 217:./Drivers/FreeRTOS/stream_buffer.c ****                                       uint8_t * pucData,
 218:./Drivers/FreeRTOS/stream_buffer.c ****                                       size_t xCount,
 219:./Drivers/FreeRTOS/stream_buffer.c ****                                       size_t xTail ) PRIVILEGED_FUNCTION;
 220:./Drivers/FreeRTOS/stream_buffer.c **** 
 221:./Drivers/FreeRTOS/stream_buffer.c **** /*
 222:./Drivers/FreeRTOS/stream_buffer.c ****  * Called by both pxStreamBufferCreate() and pxStreamBufferCreateStatic() to
 223:./Drivers/FreeRTOS/stream_buffer.c ****  * initialise the members of the newly created stream buffer structure.
 224:./Drivers/FreeRTOS/stream_buffer.c ****  */
 225:./Drivers/FreeRTOS/stream_buffer.c **** static void prvInitialiseNewStreamBuffer( StreamBuffer_t * const pxStreamBuffer,
 226:./Drivers/FreeRTOS/stream_buffer.c ****                                           uint8_t * const pucBuffer,
 227:./Drivers/FreeRTOS/stream_buffer.c ****                                           size_t xBufferSizeBytes,
 228:./Drivers/FreeRTOS/stream_buffer.c ****                                           size_t xTriggerLevelBytes,
 229:./Drivers/FreeRTOS/stream_buffer.c ****                                           uint8_t ucFlags ) PRIVILEGED_FUNCTION;
 230:./Drivers/FreeRTOS/stream_buffer.c **** 
 231:./Drivers/FreeRTOS/stream_buffer.c **** /*-----------------------------------------------------------*/
 232:./Drivers/FreeRTOS/stream_buffer.c **** 
 233:./Drivers/FreeRTOS/stream_buffer.c **** #if ( configSUPPORT_DYNAMIC_ALLOCATION == 1 )
 234:./Drivers/FreeRTOS/stream_buffer.c **** 
 235:./Drivers/FreeRTOS/stream_buffer.c ****     StreamBufferHandle_t xStreamBufferGenericCreate( size_t xBufferSizeBytes,
 236:./Drivers/FreeRTOS/stream_buffer.c ****                                                      size_t xTriggerLevelBytes,
 237:./Drivers/FreeRTOS/stream_buffer.c ****                                                      BaseType_t xIsMessageBuffer )
 238:./Drivers/FreeRTOS/stream_buffer.c ****     {
  29              		.loc 1 238 5
  30              		.cfi_startproc
  31              		@ args = 0, pretend = 0, frame = 40
  32              		@ frame_needed = 1, uses_anonymous_args = 0
  33 0000 80B5     		push	{r7, lr}
  34              	.LCFI0:
  35              		.cfi_def_cfa_offset 8
  36              		.cfi_offset 7, -8
  37              		.cfi_offset 14, -4
  38 0002 8CB0     		sub	sp, sp, #48
  39              	.LCFI1:
  40              		.cfi_def_cfa_offset 56
  41 0004 02AF     		add	r7, sp, #8
  42              	.LCFI2:
  43              		.cfi_def_cfa 7, 48
  44 0006 F860     		str	r0, [r7, #12]
  45 0008 B960     		str	r1, [r7, #8]
  46 000a 7A60     		str	r2, [r7, #4]
 239:./Drivers/FreeRTOS/stream_buffer.c ****         uint8_t * pucAllocatedMemory;
 240:./Drivers/FreeRTOS/stream_buffer.c ****         uint8_t ucFlags;
ARM GAS  C:\Users\Benson\AppData\Local\Temp\ccHty0UJ.s 			page 6


 241:./Drivers/FreeRTOS/stream_buffer.c **** 
 242:./Drivers/FreeRTOS/stream_buffer.c ****         /* In case the stream buffer is going to be used as a message buffer
 243:./Drivers/FreeRTOS/stream_buffer.c ****          * (that is, it will hold discrete messages with a little meta data that
 244:./Drivers/FreeRTOS/stream_buffer.c ****          * says how big the next message is) check the buffer will be large enough
 245:./Drivers/FreeRTOS/stream_buffer.c ****          * to hold at least one message. */
 246:./Drivers/FreeRTOS/stream_buffer.c ****         if( xIsMessageBuffer == pdTRUE )
  47              		.loc 1 246 11
  48 000c 7B68     		ldr	r3, [r7, #4]
  49 000e 012B     		cmp	r3, #1
  50 0010 10D1     		bne	.L2
 247:./Drivers/FreeRTOS/stream_buffer.c ****         {
 248:./Drivers/FreeRTOS/stream_buffer.c ****             /* Is a message buffer but not statically allocated. */
 249:./Drivers/FreeRTOS/stream_buffer.c ****             ucFlags = sbFLAGS_IS_MESSAGE_BUFFER;
  51              		.loc 1 249 21
  52 0012 0123     		movs	r3, #1
  53 0014 87F82330 		strb	r3, [r7, #35]
 250:./Drivers/FreeRTOS/stream_buffer.c ****             configASSERT( xBufferSizeBytes > sbBYTES_TO_STORE_MESSAGE_LENGTH );
  54              		.loc 1 250 13
  55 0018 FB68     		ldr	r3, [r7, #12]
  56 001a 042B     		cmp	r3, #4
  57 001c 1BD8     		bhi	.L3
  58              	.LBB85:
  59              	.LBB86:
  60              		.file 2 "Drivers/FreeRTOS/portable/GCC/ARM_CM4F/portmacro.h"
   1:Drivers/FreeRTOS/portable/GCC/ARM_CM4F/portmacro.h **** /*
   2:Drivers/FreeRTOS/portable/GCC/ARM_CM4F/portmacro.h ****  * FreeRTOS Kernel V10.4.6
   3:Drivers/FreeRTOS/portable/GCC/ARM_CM4F/portmacro.h ****  * Copyright (C) 2021 Amazon.com, Inc. or its affiliates.  All Rights Reserved.
   4:Drivers/FreeRTOS/portable/GCC/ARM_CM4F/portmacro.h ****  *
   5:Drivers/FreeRTOS/portable/GCC/ARM_CM4F/portmacro.h ****  * SPDX-License-Identifier: MIT
   6:Drivers/FreeRTOS/portable/GCC/ARM_CM4F/portmacro.h ****  *
   7:Drivers/FreeRTOS/portable/GCC/ARM_CM4F/portmacro.h ****  * Permission is hereby granted, free of charge, to any person obtaining a copy of
   8:Drivers/FreeRTOS/portable/GCC/ARM_CM4F/portmacro.h ****  * this software and associated documentation files (the "Software"), to deal in
   9:Drivers/FreeRTOS/portable/GCC/ARM_CM4F/portmacro.h ****  * the Software without restriction, including without limitation the rights to
  10:Drivers/FreeRTOS/portable/GCC/ARM_CM4F/portmacro.h ****  * use, copy, modify, merge, publish, distribute, sublicense, and/or sell copies of
  11:Drivers/FreeRTOS/portable/GCC/ARM_CM4F/portmacro.h ****  * the Software, and to permit persons to whom the Software is furnished to do so,
  12:Drivers/FreeRTOS/portable/GCC/ARM_CM4F/portmacro.h ****  * subject to the following conditions:
  13:Drivers/FreeRTOS/portable/GCC/ARM_CM4F/portmacro.h ****  *
  14:Drivers/FreeRTOS/portable/GCC/ARM_CM4F/portmacro.h ****  * The above copyright notice and this permission notice shall be included in all
  15:Drivers/FreeRTOS/portable/GCC/ARM_CM4F/portmacro.h ****  * copies or substantial portions of the Software.
  16:Drivers/FreeRTOS/portable/GCC/ARM_CM4F/portmacro.h ****  *
  17:Drivers/FreeRTOS/portable/GCC/ARM_CM4F/portmacro.h ****  * THE SOFTWARE IS PROVIDED "AS IS", WITHOUT WARRANTY OF ANY KIND, EXPRESS OR
  18:Drivers/FreeRTOS/portable/GCC/ARM_CM4F/portmacro.h ****  * IMPLIED, INCLUDING BUT NOT LIMITED TO THE WARRANTIES OF MERCHANTABILITY, FITNESS
  19:Drivers/FreeRTOS/portable/GCC/ARM_CM4F/portmacro.h ****  * FOR A PARTICULAR PURPOSE AND NONINFRINGEMENT. IN NO EVENT SHALL THE AUTHORS OR
  20:Drivers/FreeRTOS/portable/GCC/ARM_CM4F/portmacro.h ****  * COPYRIGHT HOLDERS BE LIABLE FOR ANY CLAIM, DAMAGES OR OTHER LIABILITY, WHETHER
  21:Drivers/FreeRTOS/portable/GCC/ARM_CM4F/portmacro.h ****  * IN AN ACTION OF CONTRACT, TORT OR OTHERWISE, ARISING FROM, OUT OF OR IN
  22:Drivers/FreeRTOS/portable/GCC/ARM_CM4F/portmacro.h ****  * CONNECTION WITH THE SOFTWARE OR THE USE OR OTHER DEALINGS IN THE SOFTWARE.
  23:Drivers/FreeRTOS/portable/GCC/ARM_CM4F/portmacro.h ****  *
  24:Drivers/FreeRTOS/portable/GCC/ARM_CM4F/portmacro.h ****  * https://www.FreeRTOS.org
  25:Drivers/FreeRTOS/portable/GCC/ARM_CM4F/portmacro.h ****  * https://github.com/FreeRTOS
  26:Drivers/FreeRTOS/portable/GCC/ARM_CM4F/portmacro.h ****  *
  27:Drivers/FreeRTOS/portable/GCC/ARM_CM4F/portmacro.h ****  */
  28:Drivers/FreeRTOS/portable/GCC/ARM_CM4F/portmacro.h **** 
  29:Drivers/FreeRTOS/portable/GCC/ARM_CM4F/portmacro.h **** 
  30:Drivers/FreeRTOS/portable/GCC/ARM_CM4F/portmacro.h **** #ifndef PORTMACRO_H
  31:Drivers/FreeRTOS/portable/GCC/ARM_CM4F/portmacro.h ****     #define PORTMACRO_H
  32:Drivers/FreeRTOS/portable/GCC/ARM_CM4F/portmacro.h **** 
  33:Drivers/FreeRTOS/portable/GCC/ARM_CM4F/portmacro.h ****     #ifdef __cplusplus
ARM GAS  C:\Users\Benson\AppData\Local\Temp\ccHty0UJ.s 			page 7


  34:Drivers/FreeRTOS/portable/GCC/ARM_CM4F/portmacro.h ****         extern "C" {
  35:Drivers/FreeRTOS/portable/GCC/ARM_CM4F/portmacro.h ****     #endif
  36:Drivers/FreeRTOS/portable/GCC/ARM_CM4F/portmacro.h **** 
  37:Drivers/FreeRTOS/portable/GCC/ARM_CM4F/portmacro.h **** /*-----------------------------------------------------------
  38:Drivers/FreeRTOS/portable/GCC/ARM_CM4F/portmacro.h ****  * Port specific definitions.
  39:Drivers/FreeRTOS/portable/GCC/ARM_CM4F/portmacro.h ****  *
  40:Drivers/FreeRTOS/portable/GCC/ARM_CM4F/portmacro.h ****  * The settings in this file configure FreeRTOS correctly for the
  41:Drivers/FreeRTOS/portable/GCC/ARM_CM4F/portmacro.h ****  * given hardware and compiler.
  42:Drivers/FreeRTOS/portable/GCC/ARM_CM4F/portmacro.h ****  *
  43:Drivers/FreeRTOS/portable/GCC/ARM_CM4F/portmacro.h ****  * These settings should not be altered.
  44:Drivers/FreeRTOS/portable/GCC/ARM_CM4F/portmacro.h ****  *-----------------------------------------------------------
  45:Drivers/FreeRTOS/portable/GCC/ARM_CM4F/portmacro.h ****  */
  46:Drivers/FreeRTOS/portable/GCC/ARM_CM4F/portmacro.h **** 
  47:Drivers/FreeRTOS/portable/GCC/ARM_CM4F/portmacro.h **** /* Type definitions. */
  48:Drivers/FreeRTOS/portable/GCC/ARM_CM4F/portmacro.h ****     #define portCHAR          char
  49:Drivers/FreeRTOS/portable/GCC/ARM_CM4F/portmacro.h ****     #define portFLOAT         float
  50:Drivers/FreeRTOS/portable/GCC/ARM_CM4F/portmacro.h ****     #define portDOUBLE        double
  51:Drivers/FreeRTOS/portable/GCC/ARM_CM4F/portmacro.h ****     #define portLONG          long
  52:Drivers/FreeRTOS/portable/GCC/ARM_CM4F/portmacro.h ****     #define portSHORT         short
  53:Drivers/FreeRTOS/portable/GCC/ARM_CM4F/portmacro.h ****     #define portSTACK_TYPE    uint32_t
  54:Drivers/FreeRTOS/portable/GCC/ARM_CM4F/portmacro.h ****     #define portBASE_TYPE     long
  55:Drivers/FreeRTOS/portable/GCC/ARM_CM4F/portmacro.h **** 
  56:Drivers/FreeRTOS/portable/GCC/ARM_CM4F/portmacro.h ****     typedef portSTACK_TYPE   StackType_t;
  57:Drivers/FreeRTOS/portable/GCC/ARM_CM4F/portmacro.h ****     typedef long             BaseType_t;
  58:Drivers/FreeRTOS/portable/GCC/ARM_CM4F/portmacro.h ****     typedef unsigned long    UBaseType_t;
  59:Drivers/FreeRTOS/portable/GCC/ARM_CM4F/portmacro.h **** 
  60:Drivers/FreeRTOS/portable/GCC/ARM_CM4F/portmacro.h ****     #if ( configUSE_16_BIT_TICKS == 1 )
  61:Drivers/FreeRTOS/portable/GCC/ARM_CM4F/portmacro.h ****         typedef uint16_t     TickType_t;
  62:Drivers/FreeRTOS/portable/GCC/ARM_CM4F/portmacro.h ****         #define portMAX_DELAY              ( TickType_t ) 0xffff
  63:Drivers/FreeRTOS/portable/GCC/ARM_CM4F/portmacro.h ****     #else
  64:Drivers/FreeRTOS/portable/GCC/ARM_CM4F/portmacro.h ****         typedef uint32_t     TickType_t;
  65:Drivers/FreeRTOS/portable/GCC/ARM_CM4F/portmacro.h ****         #define portMAX_DELAY              ( TickType_t ) 0xffffffffUL
  66:Drivers/FreeRTOS/portable/GCC/ARM_CM4F/portmacro.h **** 
  67:Drivers/FreeRTOS/portable/GCC/ARM_CM4F/portmacro.h **** /* 32-bit tick type on a 32-bit architecture, so reads of the tick count do
  68:Drivers/FreeRTOS/portable/GCC/ARM_CM4F/portmacro.h ****  * not need to be guarded with a critical section. */
  69:Drivers/FreeRTOS/portable/GCC/ARM_CM4F/portmacro.h ****         #define portTICK_TYPE_IS_ATOMIC    1
  70:Drivers/FreeRTOS/portable/GCC/ARM_CM4F/portmacro.h ****     #endif
  71:Drivers/FreeRTOS/portable/GCC/ARM_CM4F/portmacro.h **** /*-----------------------------------------------------------*/
  72:Drivers/FreeRTOS/portable/GCC/ARM_CM4F/portmacro.h **** 
  73:Drivers/FreeRTOS/portable/GCC/ARM_CM4F/portmacro.h **** /* Architecture specifics. */
  74:Drivers/FreeRTOS/portable/GCC/ARM_CM4F/portmacro.h ****     #define portSTACK_GROWTH      ( -1 )
  75:Drivers/FreeRTOS/portable/GCC/ARM_CM4F/portmacro.h ****     #define portTICK_PERIOD_MS    ( ( TickType_t ) 1000 / configTICK_RATE_HZ )
  76:Drivers/FreeRTOS/portable/GCC/ARM_CM4F/portmacro.h ****     #define portBYTE_ALIGNMENT    8
  77:Drivers/FreeRTOS/portable/GCC/ARM_CM4F/portmacro.h ****     #define portDONT_DISCARD      __attribute__( ( used ) )
  78:Drivers/FreeRTOS/portable/GCC/ARM_CM4F/portmacro.h **** /*-----------------------------------------------------------*/
  79:Drivers/FreeRTOS/portable/GCC/ARM_CM4F/portmacro.h **** 
  80:Drivers/FreeRTOS/portable/GCC/ARM_CM4F/portmacro.h **** /* Scheduler utilities. */
  81:Drivers/FreeRTOS/portable/GCC/ARM_CM4F/portmacro.h ****     #define portYIELD()                                 \
  82:Drivers/FreeRTOS/portable/GCC/ARM_CM4F/portmacro.h ****     {                                                   \
  83:Drivers/FreeRTOS/portable/GCC/ARM_CM4F/portmacro.h ****         /* Set a PendSV to request a context switch. */ \
  84:Drivers/FreeRTOS/portable/GCC/ARM_CM4F/portmacro.h ****         portNVIC_INT_CTRL_REG = portNVIC_PENDSVSET_BIT; \
  85:Drivers/FreeRTOS/portable/GCC/ARM_CM4F/portmacro.h ****                                                         \
  86:Drivers/FreeRTOS/portable/GCC/ARM_CM4F/portmacro.h ****         /* Barriers are normally not required but do ensure the code is completely \
  87:Drivers/FreeRTOS/portable/GCC/ARM_CM4F/portmacro.h ****          * within the specified behaviour for the architecture. */ \
  88:Drivers/FreeRTOS/portable/GCC/ARM_CM4F/portmacro.h ****         __asm volatile ( "dsb" ::: "memory" );                     \
  89:Drivers/FreeRTOS/portable/GCC/ARM_CM4F/portmacro.h ****         __asm volatile ( "isb" );                                  \
  90:Drivers/FreeRTOS/portable/GCC/ARM_CM4F/portmacro.h ****     }
ARM GAS  C:\Users\Benson\AppData\Local\Temp\ccHty0UJ.s 			page 8


  91:Drivers/FreeRTOS/portable/GCC/ARM_CM4F/portmacro.h **** 
  92:Drivers/FreeRTOS/portable/GCC/ARM_CM4F/portmacro.h ****     #define portNVIC_INT_CTRL_REG     ( *( ( volatile uint32_t * ) 0xe000ed04 ) )
  93:Drivers/FreeRTOS/portable/GCC/ARM_CM4F/portmacro.h ****     #define portNVIC_PENDSVSET_BIT    ( 1UL << 28UL )
  94:Drivers/FreeRTOS/portable/GCC/ARM_CM4F/portmacro.h ****     #define portEND_SWITCHING_ISR( xSwitchRequired )    do { if( xSwitchRequired != pdFALSE ) portY
  95:Drivers/FreeRTOS/portable/GCC/ARM_CM4F/portmacro.h ****     #define portYIELD_FROM_ISR( x )                     portEND_SWITCHING_ISR( x )
  96:Drivers/FreeRTOS/portable/GCC/ARM_CM4F/portmacro.h **** /*-----------------------------------------------------------*/
  97:Drivers/FreeRTOS/portable/GCC/ARM_CM4F/portmacro.h **** 
  98:Drivers/FreeRTOS/portable/GCC/ARM_CM4F/portmacro.h **** /* Critical section management. */
  99:Drivers/FreeRTOS/portable/GCC/ARM_CM4F/portmacro.h ****     extern void vPortEnterCritical( void );
 100:Drivers/FreeRTOS/portable/GCC/ARM_CM4F/portmacro.h ****     extern void vPortExitCritical( void );
 101:Drivers/FreeRTOS/portable/GCC/ARM_CM4F/portmacro.h ****     #define portSET_INTERRUPT_MASK_FROM_ISR()         ulPortRaiseBASEPRI()
 102:Drivers/FreeRTOS/portable/GCC/ARM_CM4F/portmacro.h ****     #define portCLEAR_INTERRUPT_MASK_FROM_ISR( x )    vPortSetBASEPRI( x )
 103:Drivers/FreeRTOS/portable/GCC/ARM_CM4F/portmacro.h ****     #define portDISABLE_INTERRUPTS()                  vPortRaiseBASEPRI()
 104:Drivers/FreeRTOS/portable/GCC/ARM_CM4F/portmacro.h ****     #define portENABLE_INTERRUPTS()                   vPortSetBASEPRI( 0 )
 105:Drivers/FreeRTOS/portable/GCC/ARM_CM4F/portmacro.h ****     #define portENTER_CRITICAL()                      vPortEnterCritical()
 106:Drivers/FreeRTOS/portable/GCC/ARM_CM4F/portmacro.h ****     #define portEXIT_CRITICAL()                       vPortExitCritical()
 107:Drivers/FreeRTOS/portable/GCC/ARM_CM4F/portmacro.h **** 
 108:Drivers/FreeRTOS/portable/GCC/ARM_CM4F/portmacro.h **** /*-----------------------------------------------------------*/
 109:Drivers/FreeRTOS/portable/GCC/ARM_CM4F/portmacro.h **** 
 110:Drivers/FreeRTOS/portable/GCC/ARM_CM4F/portmacro.h **** /* Task function macros as described on the FreeRTOS.org WEB site.  These are
 111:Drivers/FreeRTOS/portable/GCC/ARM_CM4F/portmacro.h ****  * not necessary for to use this port.  They are defined so the common demo files
 112:Drivers/FreeRTOS/portable/GCC/ARM_CM4F/portmacro.h ****  * (which build with all the ports) will build. */
 113:Drivers/FreeRTOS/portable/GCC/ARM_CM4F/portmacro.h ****     #define portTASK_FUNCTION_PROTO( vFunction, pvParameters )    void vFunction( void * pvParamete
 114:Drivers/FreeRTOS/portable/GCC/ARM_CM4F/portmacro.h ****     #define portTASK_FUNCTION( vFunction, pvParameters )          void vFunction( void * pvParamete
 115:Drivers/FreeRTOS/portable/GCC/ARM_CM4F/portmacro.h **** /*-----------------------------------------------------------*/
 116:Drivers/FreeRTOS/portable/GCC/ARM_CM4F/portmacro.h **** 
 117:Drivers/FreeRTOS/portable/GCC/ARM_CM4F/portmacro.h **** /* Tickless idle/low power functionality. */
 118:Drivers/FreeRTOS/portable/GCC/ARM_CM4F/portmacro.h ****     #ifndef portSUPPRESS_TICKS_AND_SLEEP
 119:Drivers/FreeRTOS/portable/GCC/ARM_CM4F/portmacro.h ****         extern void vPortSuppressTicksAndSleep( TickType_t xExpectedIdleTime );
 120:Drivers/FreeRTOS/portable/GCC/ARM_CM4F/portmacro.h ****         #define portSUPPRESS_TICKS_AND_SLEEP( xExpectedIdleTime )    vPortSuppressTicksAndSleep( xE
 121:Drivers/FreeRTOS/portable/GCC/ARM_CM4F/portmacro.h ****     #endif
 122:Drivers/FreeRTOS/portable/GCC/ARM_CM4F/portmacro.h **** /*-----------------------------------------------------------*/
 123:Drivers/FreeRTOS/portable/GCC/ARM_CM4F/portmacro.h **** 
 124:Drivers/FreeRTOS/portable/GCC/ARM_CM4F/portmacro.h **** /* Architecture specific optimisations. */
 125:Drivers/FreeRTOS/portable/GCC/ARM_CM4F/portmacro.h ****     #ifndef configUSE_PORT_OPTIMISED_TASK_SELECTION
 126:Drivers/FreeRTOS/portable/GCC/ARM_CM4F/portmacro.h ****         #define configUSE_PORT_OPTIMISED_TASK_SELECTION    1
 127:Drivers/FreeRTOS/portable/GCC/ARM_CM4F/portmacro.h ****     #endif
 128:Drivers/FreeRTOS/portable/GCC/ARM_CM4F/portmacro.h **** 
 129:Drivers/FreeRTOS/portable/GCC/ARM_CM4F/portmacro.h ****     #if configUSE_PORT_OPTIMISED_TASK_SELECTION == 1
 130:Drivers/FreeRTOS/portable/GCC/ARM_CM4F/portmacro.h **** 
 131:Drivers/FreeRTOS/portable/GCC/ARM_CM4F/portmacro.h **** /* Generic helper function. */
 132:Drivers/FreeRTOS/portable/GCC/ARM_CM4F/portmacro.h ****         __attribute__( ( always_inline ) ) static inline uint8_t ucPortCountLeadingZeros( uint32_t 
 133:Drivers/FreeRTOS/portable/GCC/ARM_CM4F/portmacro.h ****         {
 134:Drivers/FreeRTOS/portable/GCC/ARM_CM4F/portmacro.h ****             uint8_t ucReturn;
 135:Drivers/FreeRTOS/portable/GCC/ARM_CM4F/portmacro.h **** 
 136:Drivers/FreeRTOS/portable/GCC/ARM_CM4F/portmacro.h ****             __asm volatile ( "clz %0, %1" : "=r" ( ucReturn ) : "r" ( ulBitmap ) : "memory" );
 137:Drivers/FreeRTOS/portable/GCC/ARM_CM4F/portmacro.h **** 
 138:Drivers/FreeRTOS/portable/GCC/ARM_CM4F/portmacro.h ****             return ucReturn;
 139:Drivers/FreeRTOS/portable/GCC/ARM_CM4F/portmacro.h ****         }
 140:Drivers/FreeRTOS/portable/GCC/ARM_CM4F/portmacro.h **** 
 141:Drivers/FreeRTOS/portable/GCC/ARM_CM4F/portmacro.h **** /* Check the configuration. */
 142:Drivers/FreeRTOS/portable/GCC/ARM_CM4F/portmacro.h ****         #if ( configMAX_PRIORITIES > 32 )
 143:Drivers/FreeRTOS/portable/GCC/ARM_CM4F/portmacro.h ****             #error configUSE_PORT_OPTIMISED_TASK_SELECTION can only be set to 1 when configMAX_PRIO
 144:Drivers/FreeRTOS/portable/GCC/ARM_CM4F/portmacro.h ****         #endif
 145:Drivers/FreeRTOS/portable/GCC/ARM_CM4F/portmacro.h **** 
 146:Drivers/FreeRTOS/portable/GCC/ARM_CM4F/portmacro.h **** /* Store/clear the ready priorities in a bit map. */
 147:Drivers/FreeRTOS/portable/GCC/ARM_CM4F/portmacro.h ****         #define portRECORD_READY_PRIORITY( uxPriority, uxReadyPriorities )    ( uxReadyPriorities )
ARM GAS  C:\Users\Benson\AppData\Local\Temp\ccHty0UJ.s 			page 9


 148:Drivers/FreeRTOS/portable/GCC/ARM_CM4F/portmacro.h ****         #define portRESET_READY_PRIORITY( uxPriority, uxReadyPriorities )     ( uxReadyPriorities )
 149:Drivers/FreeRTOS/portable/GCC/ARM_CM4F/portmacro.h **** 
 150:Drivers/FreeRTOS/portable/GCC/ARM_CM4F/portmacro.h **** /*-----------------------------------------------------------*/
 151:Drivers/FreeRTOS/portable/GCC/ARM_CM4F/portmacro.h **** 
 152:Drivers/FreeRTOS/portable/GCC/ARM_CM4F/portmacro.h ****         #define portGET_HIGHEST_PRIORITY( uxTopPriority, uxReadyPriorities )    uxTopPriority = ( 3
 153:Drivers/FreeRTOS/portable/GCC/ARM_CM4F/portmacro.h **** 
 154:Drivers/FreeRTOS/portable/GCC/ARM_CM4F/portmacro.h ****     #endif /* configUSE_PORT_OPTIMISED_TASK_SELECTION */
 155:Drivers/FreeRTOS/portable/GCC/ARM_CM4F/portmacro.h **** 
 156:Drivers/FreeRTOS/portable/GCC/ARM_CM4F/portmacro.h **** /*-----------------------------------------------------------*/
 157:Drivers/FreeRTOS/portable/GCC/ARM_CM4F/portmacro.h **** 
 158:Drivers/FreeRTOS/portable/GCC/ARM_CM4F/portmacro.h ****     #ifdef configASSERT
 159:Drivers/FreeRTOS/portable/GCC/ARM_CM4F/portmacro.h ****         void vPortValidateInterruptPriority( void );
 160:Drivers/FreeRTOS/portable/GCC/ARM_CM4F/portmacro.h ****         #define portASSERT_IF_INTERRUPT_PRIORITY_INVALID()    vPortValidateInterruptPriority()
 161:Drivers/FreeRTOS/portable/GCC/ARM_CM4F/portmacro.h ****     #endif
 162:Drivers/FreeRTOS/portable/GCC/ARM_CM4F/portmacro.h **** 
 163:Drivers/FreeRTOS/portable/GCC/ARM_CM4F/portmacro.h **** /* portNOP() is not required by this port. */
 164:Drivers/FreeRTOS/portable/GCC/ARM_CM4F/portmacro.h ****     #define portNOP()
 165:Drivers/FreeRTOS/portable/GCC/ARM_CM4F/portmacro.h **** 
 166:Drivers/FreeRTOS/portable/GCC/ARM_CM4F/portmacro.h ****     #define portINLINE              __inline
 167:Drivers/FreeRTOS/portable/GCC/ARM_CM4F/portmacro.h **** 
 168:Drivers/FreeRTOS/portable/GCC/ARM_CM4F/portmacro.h ****     #ifndef portFORCE_INLINE
 169:Drivers/FreeRTOS/portable/GCC/ARM_CM4F/portmacro.h ****         #define portFORCE_INLINE    inline __attribute__( ( always_inline ) )
 170:Drivers/FreeRTOS/portable/GCC/ARM_CM4F/portmacro.h ****     #endif
 171:Drivers/FreeRTOS/portable/GCC/ARM_CM4F/portmacro.h **** 
 172:Drivers/FreeRTOS/portable/GCC/ARM_CM4F/portmacro.h ****     portFORCE_INLINE static BaseType_t xPortIsInsideInterrupt( void )
 173:Drivers/FreeRTOS/portable/GCC/ARM_CM4F/portmacro.h ****     {
 174:Drivers/FreeRTOS/portable/GCC/ARM_CM4F/portmacro.h ****         uint32_t ulCurrentInterrupt;
 175:Drivers/FreeRTOS/portable/GCC/ARM_CM4F/portmacro.h ****         BaseType_t xReturn;
 176:Drivers/FreeRTOS/portable/GCC/ARM_CM4F/portmacro.h **** 
 177:Drivers/FreeRTOS/portable/GCC/ARM_CM4F/portmacro.h ****         /* Obtain the number of the currently executing interrupt. */
 178:Drivers/FreeRTOS/portable/GCC/ARM_CM4F/portmacro.h ****         __asm volatile ( "mrs %0, ipsr" : "=r" ( ulCurrentInterrupt )::"memory" );
 179:Drivers/FreeRTOS/portable/GCC/ARM_CM4F/portmacro.h **** 
 180:Drivers/FreeRTOS/portable/GCC/ARM_CM4F/portmacro.h ****         if( ulCurrentInterrupt == 0 )
 181:Drivers/FreeRTOS/portable/GCC/ARM_CM4F/portmacro.h ****         {
 182:Drivers/FreeRTOS/portable/GCC/ARM_CM4F/portmacro.h ****             xReturn = pdFALSE;
 183:Drivers/FreeRTOS/portable/GCC/ARM_CM4F/portmacro.h ****         }
 184:Drivers/FreeRTOS/portable/GCC/ARM_CM4F/portmacro.h ****         else
 185:Drivers/FreeRTOS/portable/GCC/ARM_CM4F/portmacro.h ****         {
 186:Drivers/FreeRTOS/portable/GCC/ARM_CM4F/portmacro.h ****             xReturn = pdTRUE;
 187:Drivers/FreeRTOS/portable/GCC/ARM_CM4F/portmacro.h ****         }
 188:Drivers/FreeRTOS/portable/GCC/ARM_CM4F/portmacro.h **** 
 189:Drivers/FreeRTOS/portable/GCC/ARM_CM4F/portmacro.h ****         return xReturn;
 190:Drivers/FreeRTOS/portable/GCC/ARM_CM4F/portmacro.h ****     }
 191:Drivers/FreeRTOS/portable/GCC/ARM_CM4F/portmacro.h **** 
 192:Drivers/FreeRTOS/portable/GCC/ARM_CM4F/portmacro.h **** /*-----------------------------------------------------------*/
 193:Drivers/FreeRTOS/portable/GCC/ARM_CM4F/portmacro.h **** 
 194:Drivers/FreeRTOS/portable/GCC/ARM_CM4F/portmacro.h ****     portFORCE_INLINE static void vPortRaiseBASEPRI( void )
 195:Drivers/FreeRTOS/portable/GCC/ARM_CM4F/portmacro.h ****     {
 196:Drivers/FreeRTOS/portable/GCC/ARM_CM4F/portmacro.h ****         uint32_t ulNewBASEPRI;
 197:Drivers/FreeRTOS/portable/GCC/ARM_CM4F/portmacro.h **** 
 198:Drivers/FreeRTOS/portable/GCC/ARM_CM4F/portmacro.h ****         __asm volatile
  61              		.loc 2 198 9
  62              		.syntax unified
  63              	@ 198 "Drivers/FreeRTOS/portable/GCC/ARM_CM4F/portmacro.h" 1
  64 001e 4FF05003 			mov r3, #80												
  65 0022 83F31188 		msr basepri, r3											
  66 0026 BFF36F8F 		isb														
ARM GAS  C:\Users\Benson\AppData\Local\Temp\ccHty0UJ.s 			page 10


  67 002a BFF34F8F 		dsb														
  68              	
  69              	@ 0 "" 2
  70              		.thumb
  71              		.syntax unified
  72 002e FB61     		str	r3, [r7, #28]
 199:Drivers/FreeRTOS/portable/GCC/ARM_CM4F/portmacro.h ****         (
 200:Drivers/FreeRTOS/portable/GCC/ARM_CM4F/portmacro.h ****             "	mov %0, %1												\n"\
 201:Drivers/FreeRTOS/portable/GCC/ARM_CM4F/portmacro.h ****             "	msr basepri, %0											\n"\
 202:Drivers/FreeRTOS/portable/GCC/ARM_CM4F/portmacro.h ****             "	isb														\n"\
 203:Drivers/FreeRTOS/portable/GCC/ARM_CM4F/portmacro.h ****             "	dsb														\n"\
 204:Drivers/FreeRTOS/portable/GCC/ARM_CM4F/portmacro.h ****             : "=r" ( ulNewBASEPRI ) : "i" ( configMAX_SYSCALL_INTERRUPT_PRIORITY ) : "memory"
 205:Drivers/FreeRTOS/portable/GCC/ARM_CM4F/portmacro.h ****         );
 206:Drivers/FreeRTOS/portable/GCC/ARM_CM4F/portmacro.h ****     }
  73              		.loc 2 206 5
  74 0030 00BF     		nop
  75              	.L4:
  76              	.LBE86:
  77              	.LBE85:
  78              		.loc 1 250 13 discriminator 1
  79 0032 FEE7     		b	.L4
  80              	.L2:
 251:./Drivers/FreeRTOS/stream_buffer.c ****         }
 252:./Drivers/FreeRTOS/stream_buffer.c ****         else
 253:./Drivers/FreeRTOS/stream_buffer.c ****         {
 254:./Drivers/FreeRTOS/stream_buffer.c ****             /* Not a message buffer and not statically allocated. */
 255:./Drivers/FreeRTOS/stream_buffer.c ****             ucFlags = 0;
  81              		.loc 1 255 21
  82 0034 0023     		movs	r3, #0
  83 0036 87F82330 		strb	r3, [r7, #35]
 256:./Drivers/FreeRTOS/stream_buffer.c ****             configASSERT( xBufferSizeBytes > 0 );
  84              		.loc 1 256 13
  85 003a FB68     		ldr	r3, [r7, #12]
  86 003c 002B     		cmp	r3, #0
  87 003e 0AD1     		bne	.L3
  88              	.LBB87:
  89              	.LBB88:
 198:Drivers/FreeRTOS/portable/GCC/ARM_CM4F/portmacro.h ****         (
  90              		.loc 2 198 9
  91              		.syntax unified
  92              	@ 198 "Drivers/FreeRTOS/portable/GCC/ARM_CM4F/portmacro.h" 1
  93 0040 4FF05003 			mov r3, #80												
  94 0044 83F31188 		msr basepri, r3											
  95 0048 BFF36F8F 		isb														
  96 004c BFF34F8F 		dsb														
  97              	
  98              	@ 0 "" 2
  99              		.thumb
 100              		.syntax unified
 101 0050 BB61     		str	r3, [r7, #24]
 102              		.loc 2 206 5
 103 0052 00BF     		nop
 104              	.L5:
 105              	.LBE88:
 106              	.LBE87:
 107              		.loc 1 256 13 discriminator 2
 108 0054 FEE7     		b	.L5
ARM GAS  C:\Users\Benson\AppData\Local\Temp\ccHty0UJ.s 			page 11


 109              	.L3:
 257:./Drivers/FreeRTOS/stream_buffer.c ****         }
 258:./Drivers/FreeRTOS/stream_buffer.c **** 
 259:./Drivers/FreeRTOS/stream_buffer.c ****         configASSERT( xTriggerLevelBytes <= xBufferSizeBytes );
 110              		.loc 1 259 9
 111 0056 BA68     		ldr	r2, [r7, #8]
 112 0058 FB68     		ldr	r3, [r7, #12]
 113 005a 9A42     		cmp	r2, r3
 114 005c 0AD9     		bls	.L6
 115              	.LBB89:
 116              	.LBB90:
 198:Drivers/FreeRTOS/portable/GCC/ARM_CM4F/portmacro.h ****         (
 117              		.loc 2 198 9
 118              		.syntax unified
 119              	@ 198 "Drivers/FreeRTOS/portable/GCC/ARM_CM4F/portmacro.h" 1
 120 005e 4FF05003 			mov r3, #80												
 121 0062 83F31188 		msr basepri, r3											
 122 0066 BFF36F8F 		isb														
 123 006a BFF34F8F 		dsb														
 124              	
 125              	@ 0 "" 2
 126              		.thumb
 127              		.syntax unified
 128 006e 7B61     		str	r3, [r7, #20]
 129              		.loc 2 206 5
 130 0070 00BF     		nop
 131              	.L7:
 132              	.LBE90:
 133              	.LBE89:
 134              		.loc 1 259 9 discriminator 3
 135 0072 FEE7     		b	.L7
 136              	.L6:
 260:./Drivers/FreeRTOS/stream_buffer.c **** 
 261:./Drivers/FreeRTOS/stream_buffer.c ****         /* A trigger level of 0 would cause a waiting task to unblock even when
 262:./Drivers/FreeRTOS/stream_buffer.c ****          * the buffer was empty. */
 263:./Drivers/FreeRTOS/stream_buffer.c ****         if( xTriggerLevelBytes == ( size_t ) 0 )
 137              		.loc 1 263 11
 138 0074 BB68     		ldr	r3, [r7, #8]
 139 0076 002B     		cmp	r3, #0
 140 0078 01D1     		bne	.L8
 264:./Drivers/FreeRTOS/stream_buffer.c ****         {
 265:./Drivers/FreeRTOS/stream_buffer.c ****             xTriggerLevelBytes = ( size_t ) 1;
 141              		.loc 1 265 32
 142 007a 0123     		movs	r3, #1
 143 007c BB60     		str	r3, [r7, #8]
 144              	.L8:
 266:./Drivers/FreeRTOS/stream_buffer.c ****         }
 267:./Drivers/FreeRTOS/stream_buffer.c **** 
 268:./Drivers/FreeRTOS/stream_buffer.c ****         /* A stream buffer requires a StreamBuffer_t structure and a buffer.
 269:./Drivers/FreeRTOS/stream_buffer.c ****          * Both are allocated in a single call to pvPortMalloc().  The
 270:./Drivers/FreeRTOS/stream_buffer.c ****          * StreamBuffer_t structure is placed at the start of the allocated memory
 271:./Drivers/FreeRTOS/stream_buffer.c ****          * and the buffer follows immediately after.  The requested size is
 272:./Drivers/FreeRTOS/stream_buffer.c ****          * incremented so the free space is returned as the user would expect -
 273:./Drivers/FreeRTOS/stream_buffer.c ****          * this is a quirk of the implementation that means otherwise the free
 274:./Drivers/FreeRTOS/stream_buffer.c ****          * space would be reported as one byte smaller than would be logically
 275:./Drivers/FreeRTOS/stream_buffer.c ****          * expected. */
 276:./Drivers/FreeRTOS/stream_buffer.c ****         if( xBufferSizeBytes < ( xBufferSizeBytes + 1 + sizeof( StreamBuffer_t ) ) )
ARM GAS  C:\Users\Benson\AppData\Local\Temp\ccHty0UJ.s 			page 12


 145              		.loc 1 276 11
 146 007e FB68     		ldr	r3, [r7, #12]
 147 0080 13F1260F 		cmn	r3, #38
 148 0084 09D8     		bhi	.L9
 277:./Drivers/FreeRTOS/stream_buffer.c ****         {
 278:./Drivers/FreeRTOS/stream_buffer.c ****             xBufferSizeBytes++;
 149              		.loc 1 278 29
 150 0086 FB68     		ldr	r3, [r7, #12]
 151 0088 0133     		adds	r3, r3, #1
 152 008a FB60     		str	r3, [r7, #12]
 279:./Drivers/FreeRTOS/stream_buffer.c ****             pucAllocatedMemory = ( uint8_t * ) pvPortMalloc( xBufferSizeBytes + sizeof( StreamBuffe
 153              		.loc 1 279 48
 154 008c FB68     		ldr	r3, [r7, #12]
 155 008e 2433     		adds	r3, r3, #36
 156 0090 1846     		mov	r0, r3
 157 0092 FFF7FEFF 		bl	pvPortMalloc
 158 0096 7862     		str	r0, [r7, #36]
 159 0098 01E0     		b	.L10
 160              	.L9:
 280:./Drivers/FreeRTOS/stream_buffer.c ****         }
 281:./Drivers/FreeRTOS/stream_buffer.c ****         else
 282:./Drivers/FreeRTOS/stream_buffer.c ****         {
 283:./Drivers/FreeRTOS/stream_buffer.c ****             pucAllocatedMemory = NULL;
 161              		.loc 1 283 32
 162 009a 0023     		movs	r3, #0
 163 009c 7B62     		str	r3, [r7, #36]
 164              	.L10:
 284:./Drivers/FreeRTOS/stream_buffer.c ****         }
 285:./Drivers/FreeRTOS/stream_buffer.c **** 
 286:./Drivers/FreeRTOS/stream_buffer.c ****         if( pucAllocatedMemory != NULL )
 165              		.loc 1 286 11
 166 009e 7B6A     		ldr	r3, [r7, #36]
 167 00a0 002B     		cmp	r3, #0
 168 00a2 0AD0     		beq	.L11
 287:./Drivers/FreeRTOS/stream_buffer.c ****         {
 288:./Drivers/FreeRTOS/stream_buffer.c ****             prvInitialiseNewStreamBuffer( ( StreamBuffer_t * ) pucAllocatedMemory,       /* Structu
 169              		.loc 1 288 13
 170 00a4 7B6A     		ldr	r3, [r7, #36]
 171 00a6 03F12401 		add	r1, r3, #36
 172 00aa 97F82330 		ldrb	r3, [r7, #35]	@ zero_extendqisi2
 173 00ae 0093     		str	r3, [sp]
 174 00b0 BB68     		ldr	r3, [r7, #8]
 175 00b2 FA68     		ldr	r2, [r7, #12]
 176 00b4 786A     		ldr	r0, [r7, #36]
 177 00b6 FFF7FEFF 		bl	prvInitialiseNewStreamBuffer
 178              	.L11:
 289:./Drivers/FreeRTOS/stream_buffer.c ****                                           pucAllocatedMemory + sizeof( StreamBuffer_t ), /* Storage
 290:./Drivers/FreeRTOS/stream_buffer.c ****                                           xBufferSizeBytes,
 291:./Drivers/FreeRTOS/stream_buffer.c ****                                           xTriggerLevelBytes,
 292:./Drivers/FreeRTOS/stream_buffer.c ****                                           ucFlags );
 293:./Drivers/FreeRTOS/stream_buffer.c **** 
 294:./Drivers/FreeRTOS/stream_buffer.c ****             traceSTREAM_BUFFER_CREATE( ( ( StreamBuffer_t * ) pucAllocatedMemory ), xIsMessageBuffe
 295:./Drivers/FreeRTOS/stream_buffer.c ****         }
 296:./Drivers/FreeRTOS/stream_buffer.c ****         else
 297:./Drivers/FreeRTOS/stream_buffer.c ****         {
 298:./Drivers/FreeRTOS/stream_buffer.c ****             traceSTREAM_BUFFER_CREATE_FAILED( xIsMessageBuffer );
 299:./Drivers/FreeRTOS/stream_buffer.c ****         }
ARM GAS  C:\Users\Benson\AppData\Local\Temp\ccHty0UJ.s 			page 13


 300:./Drivers/FreeRTOS/stream_buffer.c **** 
 301:./Drivers/FreeRTOS/stream_buffer.c ****         return ( StreamBufferHandle_t ) pucAllocatedMemory; /*lint !e9087 !e826 Safe cast as alloca
 179              		.loc 1 301 16
 180 00ba 7B6A     		ldr	r3, [r7, #36]
 302:./Drivers/FreeRTOS/stream_buffer.c ****     }
 181              		.loc 1 302 5
 182 00bc 1846     		mov	r0, r3
 183 00be 2837     		adds	r7, r7, #40
 184              	.LCFI3:
 185              		.cfi_def_cfa_offset 8
 186 00c0 BD46     		mov	sp, r7
 187              	.LCFI4:
 188              		.cfi_def_cfa_register 13
 189              		@ sp needed
 190 00c2 80BD     		pop	{r7, pc}
 191              		.cfi_endproc
 192              	.LFE5:
 194              		.section	.text.vStreamBufferDelete,"ax",%progbits
 195              		.align	1
 196              		.global	vStreamBufferDelete
 197              		.syntax unified
 198              		.thumb
 199              		.thumb_func
 200              		.fpu fpv4-sp-d16
 202              	vStreamBufferDelete:
 203              	.LFB6:
 303:./Drivers/FreeRTOS/stream_buffer.c **** 
 304:./Drivers/FreeRTOS/stream_buffer.c **** #endif /* configSUPPORT_DYNAMIC_ALLOCATION */
 305:./Drivers/FreeRTOS/stream_buffer.c **** /*-----------------------------------------------------------*/
 306:./Drivers/FreeRTOS/stream_buffer.c **** 
 307:./Drivers/FreeRTOS/stream_buffer.c **** #if ( configSUPPORT_STATIC_ALLOCATION == 1 )
 308:./Drivers/FreeRTOS/stream_buffer.c **** 
 309:./Drivers/FreeRTOS/stream_buffer.c ****     StreamBufferHandle_t xStreamBufferGenericCreateStatic( size_t xBufferSizeBytes,
 310:./Drivers/FreeRTOS/stream_buffer.c ****                                                            size_t xTriggerLevelBytes,
 311:./Drivers/FreeRTOS/stream_buffer.c ****                                                            BaseType_t xIsMessageBuffer,
 312:./Drivers/FreeRTOS/stream_buffer.c ****                                                            uint8_t * const pucStreamBufferStorageAr
 313:./Drivers/FreeRTOS/stream_buffer.c ****                                                            StaticStreamBuffer_t * const pxStaticStr
 314:./Drivers/FreeRTOS/stream_buffer.c ****     {
 315:./Drivers/FreeRTOS/stream_buffer.c ****         StreamBuffer_t * const pxStreamBuffer = ( StreamBuffer_t * ) pxStaticStreamBuffer; /*lint !
 316:./Drivers/FreeRTOS/stream_buffer.c ****         StreamBufferHandle_t xReturn;
 317:./Drivers/FreeRTOS/stream_buffer.c ****         uint8_t ucFlags;
 318:./Drivers/FreeRTOS/stream_buffer.c **** 
 319:./Drivers/FreeRTOS/stream_buffer.c ****         configASSERT( pucStreamBufferStorageArea );
 320:./Drivers/FreeRTOS/stream_buffer.c ****         configASSERT( pxStaticStreamBuffer );
 321:./Drivers/FreeRTOS/stream_buffer.c ****         configASSERT( xTriggerLevelBytes <= xBufferSizeBytes );
 322:./Drivers/FreeRTOS/stream_buffer.c **** 
 323:./Drivers/FreeRTOS/stream_buffer.c ****         /* A trigger level of 0 would cause a waiting task to unblock even when
 324:./Drivers/FreeRTOS/stream_buffer.c ****          * the buffer was empty. */
 325:./Drivers/FreeRTOS/stream_buffer.c ****         if( xTriggerLevelBytes == ( size_t ) 0 )
 326:./Drivers/FreeRTOS/stream_buffer.c ****         {
 327:./Drivers/FreeRTOS/stream_buffer.c ****             xTriggerLevelBytes = ( size_t ) 1;
 328:./Drivers/FreeRTOS/stream_buffer.c ****         }
 329:./Drivers/FreeRTOS/stream_buffer.c **** 
 330:./Drivers/FreeRTOS/stream_buffer.c ****         if( xIsMessageBuffer != pdFALSE )
 331:./Drivers/FreeRTOS/stream_buffer.c ****         {
 332:./Drivers/FreeRTOS/stream_buffer.c ****             /* Statically allocated message buffer. */
 333:./Drivers/FreeRTOS/stream_buffer.c ****             ucFlags = sbFLAGS_IS_MESSAGE_BUFFER | sbFLAGS_IS_STATICALLY_ALLOCATED;
ARM GAS  C:\Users\Benson\AppData\Local\Temp\ccHty0UJ.s 			page 14


 334:./Drivers/FreeRTOS/stream_buffer.c ****         }
 335:./Drivers/FreeRTOS/stream_buffer.c ****         else
 336:./Drivers/FreeRTOS/stream_buffer.c ****         {
 337:./Drivers/FreeRTOS/stream_buffer.c ****             /* Statically allocated stream buffer. */
 338:./Drivers/FreeRTOS/stream_buffer.c ****             ucFlags = sbFLAGS_IS_STATICALLY_ALLOCATED;
 339:./Drivers/FreeRTOS/stream_buffer.c ****         }
 340:./Drivers/FreeRTOS/stream_buffer.c **** 
 341:./Drivers/FreeRTOS/stream_buffer.c ****         /* In case the stream buffer is going to be used as a message buffer
 342:./Drivers/FreeRTOS/stream_buffer.c ****          * (that is, it will hold discrete messages with a little meta data that
 343:./Drivers/FreeRTOS/stream_buffer.c ****          * says how big the next message is) check the buffer will be large enough
 344:./Drivers/FreeRTOS/stream_buffer.c ****          * to hold at least one message. */
 345:./Drivers/FreeRTOS/stream_buffer.c ****         configASSERT( xBufferSizeBytes > sbBYTES_TO_STORE_MESSAGE_LENGTH );
 346:./Drivers/FreeRTOS/stream_buffer.c **** 
 347:./Drivers/FreeRTOS/stream_buffer.c ****         #if ( configASSERT_DEFINED == 1 )
 348:./Drivers/FreeRTOS/stream_buffer.c ****             {
 349:./Drivers/FreeRTOS/stream_buffer.c ****                 /* Sanity check that the size of the structure used to declare a
 350:./Drivers/FreeRTOS/stream_buffer.c ****                  * variable of type StaticStreamBuffer_t equals the size of the real
 351:./Drivers/FreeRTOS/stream_buffer.c ****                  * message buffer structure. */
 352:./Drivers/FreeRTOS/stream_buffer.c ****                 volatile size_t xSize = sizeof( StaticStreamBuffer_t );
 353:./Drivers/FreeRTOS/stream_buffer.c ****                 configASSERT( xSize == sizeof( StreamBuffer_t ) );
 354:./Drivers/FreeRTOS/stream_buffer.c ****             } /*lint !e529 xSize is referenced is configASSERT() is defined. */
 355:./Drivers/FreeRTOS/stream_buffer.c ****         #endif /* configASSERT_DEFINED */
 356:./Drivers/FreeRTOS/stream_buffer.c **** 
 357:./Drivers/FreeRTOS/stream_buffer.c ****         if( ( pucStreamBufferStorageArea != NULL ) && ( pxStaticStreamBuffer != NULL ) )
 358:./Drivers/FreeRTOS/stream_buffer.c ****         {
 359:./Drivers/FreeRTOS/stream_buffer.c ****             prvInitialiseNewStreamBuffer( pxStreamBuffer,
 360:./Drivers/FreeRTOS/stream_buffer.c ****                                           pucStreamBufferStorageArea,
 361:./Drivers/FreeRTOS/stream_buffer.c ****                                           xBufferSizeBytes,
 362:./Drivers/FreeRTOS/stream_buffer.c ****                                           xTriggerLevelBytes,
 363:./Drivers/FreeRTOS/stream_buffer.c ****                                           ucFlags );
 364:./Drivers/FreeRTOS/stream_buffer.c **** 
 365:./Drivers/FreeRTOS/stream_buffer.c ****             /* Remember this was statically allocated in case it is ever deleted
 366:./Drivers/FreeRTOS/stream_buffer.c ****              * again. */
 367:./Drivers/FreeRTOS/stream_buffer.c ****             pxStreamBuffer->ucFlags |= sbFLAGS_IS_STATICALLY_ALLOCATED;
 368:./Drivers/FreeRTOS/stream_buffer.c **** 
 369:./Drivers/FreeRTOS/stream_buffer.c ****             traceSTREAM_BUFFER_CREATE( pxStreamBuffer, xIsMessageBuffer );
 370:./Drivers/FreeRTOS/stream_buffer.c **** 
 371:./Drivers/FreeRTOS/stream_buffer.c ****             xReturn = ( StreamBufferHandle_t ) pxStaticStreamBuffer; /*lint !e9087 Data hiding requ
 372:./Drivers/FreeRTOS/stream_buffer.c ****         }
 373:./Drivers/FreeRTOS/stream_buffer.c ****         else
 374:./Drivers/FreeRTOS/stream_buffer.c ****         {
 375:./Drivers/FreeRTOS/stream_buffer.c ****             xReturn = NULL;
 376:./Drivers/FreeRTOS/stream_buffer.c ****             traceSTREAM_BUFFER_CREATE_STATIC_FAILED( xReturn, xIsMessageBuffer );
 377:./Drivers/FreeRTOS/stream_buffer.c ****         }
 378:./Drivers/FreeRTOS/stream_buffer.c **** 
 379:./Drivers/FreeRTOS/stream_buffer.c ****         return xReturn;
 380:./Drivers/FreeRTOS/stream_buffer.c ****     }
 381:./Drivers/FreeRTOS/stream_buffer.c **** 
 382:./Drivers/FreeRTOS/stream_buffer.c **** #endif /* ( configSUPPORT_STATIC_ALLOCATION == 1 ) */
 383:./Drivers/FreeRTOS/stream_buffer.c **** /*-----------------------------------------------------------*/
 384:./Drivers/FreeRTOS/stream_buffer.c **** 
 385:./Drivers/FreeRTOS/stream_buffer.c **** void vStreamBufferDelete( StreamBufferHandle_t xStreamBuffer )
 386:./Drivers/FreeRTOS/stream_buffer.c **** {
 204              		.loc 1 386 1
 205              		.cfi_startproc
 206              		@ args = 0, pretend = 0, frame = 16
 207              		@ frame_needed = 1, uses_anonymous_args = 0
ARM GAS  C:\Users\Benson\AppData\Local\Temp\ccHty0UJ.s 			page 15


 208 0000 80B5     		push	{r7, lr}
 209              	.LCFI5:
 210              		.cfi_def_cfa_offset 8
 211              		.cfi_offset 7, -8
 212              		.cfi_offset 14, -4
 213 0002 84B0     		sub	sp, sp, #16
 214              	.LCFI6:
 215              		.cfi_def_cfa_offset 24
 216 0004 00AF     		add	r7, sp, #0
 217              	.LCFI7:
 218              		.cfi_def_cfa_register 7
 219 0006 7860     		str	r0, [r7, #4]
 387:./Drivers/FreeRTOS/stream_buffer.c ****     StreamBuffer_t * pxStreamBuffer = xStreamBuffer;
 220              		.loc 1 387 22
 221 0008 7B68     		ldr	r3, [r7, #4]
 222 000a FB60     		str	r3, [r7, #12]
 388:./Drivers/FreeRTOS/stream_buffer.c **** 
 389:./Drivers/FreeRTOS/stream_buffer.c ****     configASSERT( pxStreamBuffer );
 223              		.loc 1 389 5
 224 000c FB68     		ldr	r3, [r7, #12]
 225 000e 002B     		cmp	r3, #0
 226 0010 0AD1     		bne	.L14
 227              	.LBB91:
 228              	.LBB92:
 198:Drivers/FreeRTOS/portable/GCC/ARM_CM4F/portmacro.h ****         (
 229              		.loc 2 198 9
 230              		.syntax unified
 231              	@ 198 "Drivers/FreeRTOS/portable/GCC/ARM_CM4F/portmacro.h" 1
 232 0012 4FF05003 			mov r3, #80												
 233 0016 83F31188 		msr basepri, r3											
 234 001a BFF36F8F 		isb														
 235 001e BFF34F8F 		dsb														
 236              	
 237              	@ 0 "" 2
 238              		.thumb
 239              		.syntax unified
 240 0022 BB60     		str	r3, [r7, #8]
 241              		.loc 2 206 5
 242 0024 00BF     		nop
 243              	.L15:
 244              	.LBE92:
 245              	.LBE91:
 246              		.loc 1 389 5 discriminator 1
 247 0026 FEE7     		b	.L15
 248              	.L14:
 390:./Drivers/FreeRTOS/stream_buffer.c **** 
 391:./Drivers/FreeRTOS/stream_buffer.c ****     traceSTREAM_BUFFER_DELETE( xStreamBuffer );
 392:./Drivers/FreeRTOS/stream_buffer.c **** 
 393:./Drivers/FreeRTOS/stream_buffer.c ****     if( ( pxStreamBuffer->ucFlags & sbFLAGS_IS_STATICALLY_ALLOCATED ) == ( uint8_t ) pdFALSE )
 249              		.loc 1 393 25
 250 0028 FB68     		ldr	r3, [r7, #12]
 251 002a 1B7F     		ldrb	r3, [r3, #28]	@ zero_extendqisi2
 252              		.loc 1 393 35
 253 002c 03F00203 		and	r3, r3, #2
 254              		.loc 1 393 7
 255 0030 002B     		cmp	r3, #0
 256 0032 03D1     		bne	.L16
ARM GAS  C:\Users\Benson\AppData\Local\Temp\ccHty0UJ.s 			page 16


 394:./Drivers/FreeRTOS/stream_buffer.c ****     {
 395:./Drivers/FreeRTOS/stream_buffer.c ****         #if ( configSUPPORT_DYNAMIC_ALLOCATION == 1 )
 396:./Drivers/FreeRTOS/stream_buffer.c ****             {
 397:./Drivers/FreeRTOS/stream_buffer.c ****                 /* Both the structure and the buffer were allocated using a single call
 398:./Drivers/FreeRTOS/stream_buffer.c ****                 * to pvPortMalloc(), hence only one call to vPortFree() is required. */
 399:./Drivers/FreeRTOS/stream_buffer.c ****                 vPortFree( ( void * ) pxStreamBuffer ); /*lint !e9087 Standard free() semantics req
 257              		.loc 1 399 17
 258 0034 F868     		ldr	r0, [r7, #12]
 259 0036 FFF7FEFF 		bl	vPortFree
 400:./Drivers/FreeRTOS/stream_buffer.c ****             }
 401:./Drivers/FreeRTOS/stream_buffer.c ****         #else
 402:./Drivers/FreeRTOS/stream_buffer.c ****             {
 403:./Drivers/FreeRTOS/stream_buffer.c ****                 /* Should not be possible to get here, ucFlags must be corrupt.
 404:./Drivers/FreeRTOS/stream_buffer.c ****                  * Force an assert. */
 405:./Drivers/FreeRTOS/stream_buffer.c ****                 configASSERT( xStreamBuffer == ( StreamBufferHandle_t ) ~0 );
 406:./Drivers/FreeRTOS/stream_buffer.c ****             }
 407:./Drivers/FreeRTOS/stream_buffer.c ****         #endif
 408:./Drivers/FreeRTOS/stream_buffer.c ****     }
 409:./Drivers/FreeRTOS/stream_buffer.c ****     else
 410:./Drivers/FreeRTOS/stream_buffer.c ****     {
 411:./Drivers/FreeRTOS/stream_buffer.c ****         /* The structure and buffer were not allocated dynamically and cannot be
 412:./Drivers/FreeRTOS/stream_buffer.c ****          * freed - just scrub the structure so future use will assert. */
 413:./Drivers/FreeRTOS/stream_buffer.c ****         ( void ) memset( pxStreamBuffer, 0x00, sizeof( StreamBuffer_t ) );
 414:./Drivers/FreeRTOS/stream_buffer.c ****     }
 415:./Drivers/FreeRTOS/stream_buffer.c **** }
 260              		.loc 1 415 1
 261 003a 04E0     		b	.L18
 262              	.L16:
 413:./Drivers/FreeRTOS/stream_buffer.c ****     }
 263              		.loc 1 413 18
 264 003c 2422     		movs	r2, #36
 265 003e 0021     		movs	r1, #0
 266 0040 F868     		ldr	r0, [r7, #12]
 267 0042 FFF7FEFF 		bl	memset
 268              	.L18:
 269              		.loc 1 415 1
 270 0046 00BF     		nop
 271 0048 1037     		adds	r7, r7, #16
 272              	.LCFI8:
 273              		.cfi_def_cfa_offset 8
 274 004a BD46     		mov	sp, r7
 275              	.LCFI9:
 276              		.cfi_def_cfa_register 13
 277              		@ sp needed
 278 004c 80BD     		pop	{r7, pc}
 279              		.cfi_endproc
 280              	.LFE6:
 282              		.section	.text.xStreamBufferReset,"ax",%progbits
 283              		.align	1
 284              		.global	xStreamBufferReset
 285              		.syntax unified
 286              		.thumb
 287              		.thumb_func
 288              		.fpu fpv4-sp-d16
 290              	xStreamBufferReset:
 291              	.LFB7:
 416:./Drivers/FreeRTOS/stream_buffer.c **** /*-----------------------------------------------------------*/
ARM GAS  C:\Users\Benson\AppData\Local\Temp\ccHty0UJ.s 			page 17


 417:./Drivers/FreeRTOS/stream_buffer.c **** 
 418:./Drivers/FreeRTOS/stream_buffer.c **** BaseType_t xStreamBufferReset( StreamBufferHandle_t xStreamBuffer )
 419:./Drivers/FreeRTOS/stream_buffer.c **** {
 292              		.loc 1 419 1
 293              		.cfi_startproc
 294              		@ args = 0, pretend = 0, frame = 24
 295              		@ frame_needed = 1, uses_anonymous_args = 0
 296 0000 80B5     		push	{r7, lr}
 297              	.LCFI10:
 298              		.cfi_def_cfa_offset 8
 299              		.cfi_offset 7, -8
 300              		.cfi_offset 14, -4
 301 0002 88B0     		sub	sp, sp, #32
 302              	.LCFI11:
 303              		.cfi_def_cfa_offset 40
 304 0004 02AF     		add	r7, sp, #8
 305              	.LCFI12:
 306              		.cfi_def_cfa 7, 32
 307 0006 7860     		str	r0, [r7, #4]
 420:./Drivers/FreeRTOS/stream_buffer.c ****     StreamBuffer_t * const pxStreamBuffer = xStreamBuffer;
 308              		.loc 1 420 28
 309 0008 7B68     		ldr	r3, [r7, #4]
 310 000a 3B61     		str	r3, [r7, #16]
 421:./Drivers/FreeRTOS/stream_buffer.c ****     BaseType_t xReturn = pdFAIL;
 311              		.loc 1 421 16
 312 000c 0023     		movs	r3, #0
 313 000e 7B61     		str	r3, [r7, #20]
 422:./Drivers/FreeRTOS/stream_buffer.c **** 
 423:./Drivers/FreeRTOS/stream_buffer.c ****     #if ( configUSE_TRACE_FACILITY == 1 )
 424:./Drivers/FreeRTOS/stream_buffer.c ****         UBaseType_t uxStreamBufferNumber;
 425:./Drivers/FreeRTOS/stream_buffer.c ****     #endif
 426:./Drivers/FreeRTOS/stream_buffer.c **** 
 427:./Drivers/FreeRTOS/stream_buffer.c ****     configASSERT( pxStreamBuffer );
 314              		.loc 1 427 5
 315 0010 3B69     		ldr	r3, [r7, #16]
 316 0012 002B     		cmp	r3, #0
 317 0014 0AD1     		bne	.L20
 318              	.LBB93:
 319              	.LBB94:
 198:Drivers/FreeRTOS/portable/GCC/ARM_CM4F/portmacro.h ****         (
 320              		.loc 2 198 9
 321              		.syntax unified
 322              	@ 198 "Drivers/FreeRTOS/portable/GCC/ARM_CM4F/portmacro.h" 1
 323 0016 4FF05003 			mov r3, #80												
 324 001a 83F31188 		msr basepri, r3											
 325 001e BFF36F8F 		isb														
 326 0022 BFF34F8F 		dsb														
 327              	
 328              	@ 0 "" 2
 329              		.thumb
 330              		.syntax unified
 331 0026 BB60     		str	r3, [r7, #8]
 332              		.loc 2 206 5
 333 0028 00BF     		nop
 334              	.L21:
 335              	.LBE94:
 336              	.LBE93:
ARM GAS  C:\Users\Benson\AppData\Local\Temp\ccHty0UJ.s 			page 18


 337              		.loc 1 427 5 discriminator 1
 338 002a FEE7     		b	.L21
 339              	.L20:
 428:./Drivers/FreeRTOS/stream_buffer.c **** 
 429:./Drivers/FreeRTOS/stream_buffer.c ****     #if ( configUSE_TRACE_FACILITY == 1 )
 430:./Drivers/FreeRTOS/stream_buffer.c ****         {
 431:./Drivers/FreeRTOS/stream_buffer.c ****             /* Store the stream buffer number so it can be restored after the
 432:./Drivers/FreeRTOS/stream_buffer.c ****              * reset. */
 433:./Drivers/FreeRTOS/stream_buffer.c ****             uxStreamBufferNumber = pxStreamBuffer->uxStreamBufferNumber;
 340              		.loc 1 433 34
 341 002c 3B69     		ldr	r3, [r7, #16]
 342 002e 1B6A     		ldr	r3, [r3, #32]
 343 0030 FB60     		str	r3, [r7, #12]
 434:./Drivers/FreeRTOS/stream_buffer.c ****         }
 435:./Drivers/FreeRTOS/stream_buffer.c ****     #endif
 436:./Drivers/FreeRTOS/stream_buffer.c **** 
 437:./Drivers/FreeRTOS/stream_buffer.c ****     /* Can only reset a message buffer if there are no tasks blocked on it. */
 438:./Drivers/FreeRTOS/stream_buffer.c ****     taskENTER_CRITICAL();
 344              		.loc 1 438 5
 345 0032 FFF7FEFF 		bl	vPortEnterCritical
 439:./Drivers/FreeRTOS/stream_buffer.c ****     {
 440:./Drivers/FreeRTOS/stream_buffer.c ****         if( pxStreamBuffer->xTaskWaitingToReceive == NULL )
 346              		.loc 1 440 27
 347 0036 3B69     		ldr	r3, [r7, #16]
 348 0038 1B69     		ldr	r3, [r3, #16]
 349              		.loc 1 440 11
 350 003a 002B     		cmp	r3, #0
 351 003c 15D1     		bne	.L22
 441:./Drivers/FreeRTOS/stream_buffer.c ****         {
 442:./Drivers/FreeRTOS/stream_buffer.c ****             if( pxStreamBuffer->xTaskWaitingToSend == NULL )
 352              		.loc 1 442 31
 353 003e 3B69     		ldr	r3, [r7, #16]
 354 0040 5B69     		ldr	r3, [r3, #20]
 355              		.loc 1 442 15
 356 0042 002B     		cmp	r3, #0
 357 0044 11D1     		bne	.L22
 443:./Drivers/FreeRTOS/stream_buffer.c ****             {
 444:./Drivers/FreeRTOS/stream_buffer.c ****                 prvInitialiseNewStreamBuffer( pxStreamBuffer,
 358              		.loc 1 444 17
 359 0046 3B69     		ldr	r3, [r7, #16]
 360 0048 9969     		ldr	r1, [r3, #24]
 361 004a 3B69     		ldr	r3, [r7, #16]
 362 004c 9A68     		ldr	r2, [r3, #8]
 363 004e 3B69     		ldr	r3, [r7, #16]
 364 0050 D868     		ldr	r0, [r3, #12]
 365 0052 3B69     		ldr	r3, [r7, #16]
 366 0054 1B7F     		ldrb	r3, [r3, #28]	@ zero_extendqisi2
 367 0056 0093     		str	r3, [sp]
 368 0058 0346     		mov	r3, r0
 369 005a 3869     		ldr	r0, [r7, #16]
 370 005c FFF7FEFF 		bl	prvInitialiseNewStreamBuffer
 445:./Drivers/FreeRTOS/stream_buffer.c ****                                               pxStreamBuffer->pucBuffer,
 446:./Drivers/FreeRTOS/stream_buffer.c ****                                               pxStreamBuffer->xLength,
 447:./Drivers/FreeRTOS/stream_buffer.c ****                                               pxStreamBuffer->xTriggerLevelBytes,
 448:./Drivers/FreeRTOS/stream_buffer.c ****                                               pxStreamBuffer->ucFlags );
 449:./Drivers/FreeRTOS/stream_buffer.c ****                 xReturn = pdPASS;
 371              		.loc 1 449 25
ARM GAS  C:\Users\Benson\AppData\Local\Temp\ccHty0UJ.s 			page 19


 372 0060 0123     		movs	r3, #1
 373 0062 7B61     		str	r3, [r7, #20]
 450:./Drivers/FreeRTOS/stream_buffer.c **** 
 451:./Drivers/FreeRTOS/stream_buffer.c ****                 #if ( configUSE_TRACE_FACILITY == 1 )
 452:./Drivers/FreeRTOS/stream_buffer.c ****                     {
 453:./Drivers/FreeRTOS/stream_buffer.c ****                         pxStreamBuffer->uxStreamBufferNumber = uxStreamBufferNumber;
 374              		.loc 1 453 62
 375 0064 3B69     		ldr	r3, [r7, #16]
 376 0066 FA68     		ldr	r2, [r7, #12]
 377 0068 1A62     		str	r2, [r3, #32]
 378              	.L22:
 454:./Drivers/FreeRTOS/stream_buffer.c ****                     }
 455:./Drivers/FreeRTOS/stream_buffer.c ****                 #endif
 456:./Drivers/FreeRTOS/stream_buffer.c **** 
 457:./Drivers/FreeRTOS/stream_buffer.c ****                 traceSTREAM_BUFFER_RESET( xStreamBuffer );
 458:./Drivers/FreeRTOS/stream_buffer.c ****             }
 459:./Drivers/FreeRTOS/stream_buffer.c ****         }
 460:./Drivers/FreeRTOS/stream_buffer.c ****     }
 461:./Drivers/FreeRTOS/stream_buffer.c ****     taskEXIT_CRITICAL();
 379              		.loc 1 461 5
 380 006a FFF7FEFF 		bl	vPortExitCritical
 462:./Drivers/FreeRTOS/stream_buffer.c **** 
 463:./Drivers/FreeRTOS/stream_buffer.c ****     return xReturn;
 381              		.loc 1 463 12
 382 006e 7B69     		ldr	r3, [r7, #20]
 464:./Drivers/FreeRTOS/stream_buffer.c **** }
 383              		.loc 1 464 1
 384 0070 1846     		mov	r0, r3
 385 0072 1837     		adds	r7, r7, #24
 386              	.LCFI13:
 387              		.cfi_def_cfa_offset 8
 388 0074 BD46     		mov	sp, r7
 389              	.LCFI14:
 390              		.cfi_def_cfa_register 13
 391              		@ sp needed
 392 0076 80BD     		pop	{r7, pc}
 393              		.cfi_endproc
 394              	.LFE7:
 396              		.section	.text.xStreamBufferSetTriggerLevel,"ax",%progbits
 397              		.align	1
 398              		.global	xStreamBufferSetTriggerLevel
 399              		.syntax unified
 400              		.thumb
 401              		.thumb_func
 402              		.fpu fpv4-sp-d16
 404              	xStreamBufferSetTriggerLevel:
 405              	.LFB8:
 465:./Drivers/FreeRTOS/stream_buffer.c **** /*-----------------------------------------------------------*/
 466:./Drivers/FreeRTOS/stream_buffer.c **** 
 467:./Drivers/FreeRTOS/stream_buffer.c **** BaseType_t xStreamBufferSetTriggerLevel( StreamBufferHandle_t xStreamBuffer,
 468:./Drivers/FreeRTOS/stream_buffer.c ****                                          size_t xTriggerLevel )
 469:./Drivers/FreeRTOS/stream_buffer.c **** {
 406              		.loc 1 469 1
 407              		.cfi_startproc
 408              		@ args = 0, pretend = 0, frame = 24
 409              		@ frame_needed = 1, uses_anonymous_args = 0
 410              		@ link register save eliminated.
ARM GAS  C:\Users\Benson\AppData\Local\Temp\ccHty0UJ.s 			page 20


 411 0000 80B4     		push	{r7}
 412              	.LCFI15:
 413              		.cfi_def_cfa_offset 4
 414              		.cfi_offset 7, -4
 415 0002 87B0     		sub	sp, sp, #28
 416              	.LCFI16:
 417              		.cfi_def_cfa_offset 32
 418 0004 00AF     		add	r7, sp, #0
 419              	.LCFI17:
 420              		.cfi_def_cfa_register 7
 421 0006 7860     		str	r0, [r7, #4]
 422 0008 3960     		str	r1, [r7]
 470:./Drivers/FreeRTOS/stream_buffer.c ****     StreamBuffer_t * const pxStreamBuffer = xStreamBuffer;
 423              		.loc 1 470 28
 424 000a 7B68     		ldr	r3, [r7, #4]
 425 000c 3B61     		str	r3, [r7, #16]
 471:./Drivers/FreeRTOS/stream_buffer.c ****     BaseType_t xReturn;
 472:./Drivers/FreeRTOS/stream_buffer.c **** 
 473:./Drivers/FreeRTOS/stream_buffer.c ****     configASSERT( pxStreamBuffer );
 426              		.loc 1 473 5
 427 000e 3B69     		ldr	r3, [r7, #16]
 428 0010 002B     		cmp	r3, #0
 429 0012 0AD1     		bne	.L25
 430              	.LBB95:
 431              	.LBB96:
 198:Drivers/FreeRTOS/portable/GCC/ARM_CM4F/portmacro.h ****         (
 432              		.loc 2 198 9
 433              		.syntax unified
 434              	@ 198 "Drivers/FreeRTOS/portable/GCC/ARM_CM4F/portmacro.h" 1
 435 0014 4FF05003 			mov r3, #80												
 436 0018 83F31188 		msr basepri, r3											
 437 001c BFF36F8F 		isb														
 438 0020 BFF34F8F 		dsb														
 439              	
 440              	@ 0 "" 2
 441              		.thumb
 442              		.syntax unified
 443 0024 FB60     		str	r3, [r7, #12]
 444              		.loc 2 206 5
 445 0026 00BF     		nop
 446              	.L26:
 447              	.LBE96:
 448              	.LBE95:
 449              		.loc 1 473 5 discriminator 1
 450 0028 FEE7     		b	.L26
 451              	.L25:
 474:./Drivers/FreeRTOS/stream_buffer.c **** 
 475:./Drivers/FreeRTOS/stream_buffer.c ****     /* It is not valid for the trigger level to be 0. */
 476:./Drivers/FreeRTOS/stream_buffer.c ****     if( xTriggerLevel == ( size_t ) 0 )
 452              		.loc 1 476 7
 453 002a 3B68     		ldr	r3, [r7]
 454 002c 002B     		cmp	r3, #0
 455 002e 01D1     		bne	.L27
 477:./Drivers/FreeRTOS/stream_buffer.c ****     {
 478:./Drivers/FreeRTOS/stream_buffer.c ****         xTriggerLevel = ( size_t ) 1;
 456              		.loc 1 478 23
 457 0030 0123     		movs	r3, #1
ARM GAS  C:\Users\Benson\AppData\Local\Temp\ccHty0UJ.s 			page 21


 458 0032 3B60     		str	r3, [r7]
 459              	.L27:
 479:./Drivers/FreeRTOS/stream_buffer.c ****     }
 480:./Drivers/FreeRTOS/stream_buffer.c **** 
 481:./Drivers/FreeRTOS/stream_buffer.c ****     /* The trigger level is the number of bytes that must be in the stream
 482:./Drivers/FreeRTOS/stream_buffer.c ****      * buffer before a task that is waiting for data is unblocked. */
 483:./Drivers/FreeRTOS/stream_buffer.c ****     if( xTriggerLevel < pxStreamBuffer->xLength )
 460              		.loc 1 483 39
 461 0034 3B69     		ldr	r3, [r7, #16]
 462 0036 9B68     		ldr	r3, [r3, #8]
 463              		.loc 1 483 7
 464 0038 3A68     		ldr	r2, [r7]
 465 003a 9A42     		cmp	r2, r3
 466 003c 05D2     		bcs	.L28
 484:./Drivers/FreeRTOS/stream_buffer.c ****     {
 485:./Drivers/FreeRTOS/stream_buffer.c ****         pxStreamBuffer->xTriggerLevelBytes = xTriggerLevel;
 467              		.loc 1 485 44
 468 003e 3B69     		ldr	r3, [r7, #16]
 469 0040 3A68     		ldr	r2, [r7]
 470 0042 DA60     		str	r2, [r3, #12]
 486:./Drivers/FreeRTOS/stream_buffer.c ****         xReturn = pdPASS;
 471              		.loc 1 486 17
 472 0044 0123     		movs	r3, #1
 473 0046 7B61     		str	r3, [r7, #20]
 474 0048 01E0     		b	.L29
 475              	.L28:
 487:./Drivers/FreeRTOS/stream_buffer.c ****     }
 488:./Drivers/FreeRTOS/stream_buffer.c ****     else
 489:./Drivers/FreeRTOS/stream_buffer.c ****     {
 490:./Drivers/FreeRTOS/stream_buffer.c ****         xReturn = pdFALSE;
 476              		.loc 1 490 17
 477 004a 0023     		movs	r3, #0
 478 004c 7B61     		str	r3, [r7, #20]
 479              	.L29:
 491:./Drivers/FreeRTOS/stream_buffer.c ****     }
 492:./Drivers/FreeRTOS/stream_buffer.c **** 
 493:./Drivers/FreeRTOS/stream_buffer.c ****     return xReturn;
 480              		.loc 1 493 12
 481 004e 7B69     		ldr	r3, [r7, #20]
 494:./Drivers/FreeRTOS/stream_buffer.c **** }
 482              		.loc 1 494 1
 483 0050 1846     		mov	r0, r3
 484 0052 1C37     		adds	r7, r7, #28
 485              	.LCFI18:
 486              		.cfi_def_cfa_offset 4
 487 0054 BD46     		mov	sp, r7
 488              	.LCFI19:
 489              		.cfi_def_cfa_register 13
 490              		@ sp needed
 491 0056 5DF8047B 		ldr	r7, [sp], #4
 492              	.LCFI20:
 493              		.cfi_restore 7
 494              		.cfi_def_cfa_offset 0
 495 005a 7047     		bx	lr
 496              		.cfi_endproc
 497              	.LFE8:
 499              		.section	.text.xStreamBufferSpacesAvailable,"ax",%progbits
ARM GAS  C:\Users\Benson\AppData\Local\Temp\ccHty0UJ.s 			page 22


 500              		.align	1
 501              		.global	xStreamBufferSpacesAvailable
 502              		.syntax unified
 503              		.thumb
 504              		.thumb_func
 505              		.fpu fpv4-sp-d16
 507              	xStreamBufferSpacesAvailable:
 508              	.LFB9:
 495:./Drivers/FreeRTOS/stream_buffer.c **** /*-----------------------------------------------------------*/
 496:./Drivers/FreeRTOS/stream_buffer.c **** 
 497:./Drivers/FreeRTOS/stream_buffer.c **** size_t xStreamBufferSpacesAvailable( StreamBufferHandle_t xStreamBuffer )
 498:./Drivers/FreeRTOS/stream_buffer.c **** {
 509              		.loc 1 498 1
 510              		.cfi_startproc
 511              		@ args = 0, pretend = 0, frame = 24
 512              		@ frame_needed = 1, uses_anonymous_args = 0
 513              		@ link register save eliminated.
 514 0000 80B4     		push	{r7}
 515              	.LCFI21:
 516              		.cfi_def_cfa_offset 4
 517              		.cfi_offset 7, -4
 518 0002 87B0     		sub	sp, sp, #28
 519              	.LCFI22:
 520              		.cfi_def_cfa_offset 32
 521 0004 00AF     		add	r7, sp, #0
 522              	.LCFI23:
 523              		.cfi_def_cfa_register 7
 524 0006 7860     		str	r0, [r7, #4]
 499:./Drivers/FreeRTOS/stream_buffer.c ****     const StreamBuffer_t * const pxStreamBuffer = xStreamBuffer;
 525              		.loc 1 499 34
 526 0008 7B68     		ldr	r3, [r7, #4]
 527 000a 3B61     		str	r3, [r7, #16]
 500:./Drivers/FreeRTOS/stream_buffer.c ****     size_t xSpace;
 501:./Drivers/FreeRTOS/stream_buffer.c ****     size_t xOriginalTail;
 502:./Drivers/FreeRTOS/stream_buffer.c **** 
 503:./Drivers/FreeRTOS/stream_buffer.c ****     configASSERT( pxStreamBuffer );
 528              		.loc 1 503 5
 529 000c 3B69     		ldr	r3, [r7, #16]
 530 000e 002B     		cmp	r3, #0
 531 0010 0AD1     		bne	.L32
 532              	.LBB97:
 533              	.LBB98:
 198:Drivers/FreeRTOS/portable/GCC/ARM_CM4F/portmacro.h ****         (
 534              		.loc 2 198 9
 535              		.syntax unified
 536              	@ 198 "Drivers/FreeRTOS/portable/GCC/ARM_CM4F/portmacro.h" 1
 537 0012 4FF05003 			mov r3, #80												
 538 0016 83F31188 		msr basepri, r3											
 539 001a BFF36F8F 		isb														
 540 001e BFF34F8F 		dsb														
 541              	
 542              	@ 0 "" 2
 543              		.thumb
 544              		.syntax unified
 545 0022 BB60     		str	r3, [r7, #8]
 546              		.loc 2 206 5
 547 0024 00BF     		nop
ARM GAS  C:\Users\Benson\AppData\Local\Temp\ccHty0UJ.s 			page 23


 548              	.L33:
 549              	.LBE98:
 550              	.LBE97:
 551              		.loc 1 503 5 discriminator 1
 552 0026 FEE7     		b	.L33
 553              	.L32:
 504:./Drivers/FreeRTOS/stream_buffer.c **** 
 505:./Drivers/FreeRTOS/stream_buffer.c ****     /* The code below reads xTail and then xHead.  This is safe if the stream
 506:./Drivers/FreeRTOS/stream_buffer.c ****      * buffer is updated once between the two reads - but not if the stream buffer
 507:./Drivers/FreeRTOS/stream_buffer.c ****      * is updated more than once between the two reads - hence the loop. */
 508:./Drivers/FreeRTOS/stream_buffer.c ****     do
 509:./Drivers/FreeRTOS/stream_buffer.c ****     {
 510:./Drivers/FreeRTOS/stream_buffer.c ****         xOriginalTail = pxStreamBuffer->xTail;
 554              		.loc 1 510 23 discriminator 1
 555 0028 3B69     		ldr	r3, [r7, #16]
 556 002a 1B68     		ldr	r3, [r3]
 557 002c FB60     		str	r3, [r7, #12]
 511:./Drivers/FreeRTOS/stream_buffer.c ****         xSpace = pxStreamBuffer->xLength + pxStreamBuffer->xTail;
 558              		.loc 1 511 32 discriminator 1
 559 002e 3B69     		ldr	r3, [r7, #16]
 560 0030 9A68     		ldr	r2, [r3, #8]
 561              		.loc 1 511 58 discriminator 1
 562 0032 3B69     		ldr	r3, [r7, #16]
 563 0034 1B68     		ldr	r3, [r3]
 564              		.loc 1 511 16 discriminator 1
 565 0036 1344     		add	r3, r3, r2
 566 0038 7B61     		str	r3, [r7, #20]
 512:./Drivers/FreeRTOS/stream_buffer.c ****         xSpace -= pxStreamBuffer->xHead;
 567              		.loc 1 512 33 discriminator 1
 568 003a 3B69     		ldr	r3, [r7, #16]
 569 003c 5B68     		ldr	r3, [r3, #4]
 570              		.loc 1 512 16 discriminator 1
 571 003e 7A69     		ldr	r2, [r7, #20]
 572 0040 D31A     		subs	r3, r2, r3
 573 0042 7B61     		str	r3, [r7, #20]
 513:./Drivers/FreeRTOS/stream_buffer.c ****     } while( xOriginalTail != pxStreamBuffer->xTail );
 574              		.loc 1 513 45 discriminator 1
 575 0044 3B69     		ldr	r3, [r7, #16]
 576 0046 1B68     		ldr	r3, [r3]
 577              		.loc 1 513 5 discriminator 1
 578 0048 FA68     		ldr	r2, [r7, #12]
 579 004a 9A42     		cmp	r2, r3
 580 004c ECD1     		bne	.L32
 514:./Drivers/FreeRTOS/stream_buffer.c **** 
 515:./Drivers/FreeRTOS/stream_buffer.c ****     xSpace -= ( size_t ) 1;
 581              		.loc 1 515 12
 582 004e 7B69     		ldr	r3, [r7, #20]
 583 0050 013B     		subs	r3, r3, #1
 584 0052 7B61     		str	r3, [r7, #20]
 516:./Drivers/FreeRTOS/stream_buffer.c **** 
 517:./Drivers/FreeRTOS/stream_buffer.c ****     if( xSpace >= pxStreamBuffer->xLength )
 585              		.loc 1 517 33
 586 0054 3B69     		ldr	r3, [r7, #16]
 587 0056 9B68     		ldr	r3, [r3, #8]
 588              		.loc 1 517 7
 589 0058 7A69     		ldr	r2, [r7, #20]
 590 005a 9A42     		cmp	r2, r3
ARM GAS  C:\Users\Benson\AppData\Local\Temp\ccHty0UJ.s 			page 24


 591 005c 04D3     		bcc	.L34
 518:./Drivers/FreeRTOS/stream_buffer.c ****     {
 519:./Drivers/FreeRTOS/stream_buffer.c ****         xSpace -= pxStreamBuffer->xLength;
 592              		.loc 1 519 33
 593 005e 3B69     		ldr	r3, [r7, #16]
 594 0060 9B68     		ldr	r3, [r3, #8]
 595              		.loc 1 519 16
 596 0062 7A69     		ldr	r2, [r7, #20]
 597 0064 D31A     		subs	r3, r2, r3
 598 0066 7B61     		str	r3, [r7, #20]
 599              	.L34:
 520:./Drivers/FreeRTOS/stream_buffer.c ****     }
 521:./Drivers/FreeRTOS/stream_buffer.c ****     else
 522:./Drivers/FreeRTOS/stream_buffer.c ****     {
 523:./Drivers/FreeRTOS/stream_buffer.c ****         mtCOVERAGE_TEST_MARKER();
 524:./Drivers/FreeRTOS/stream_buffer.c ****     }
 525:./Drivers/FreeRTOS/stream_buffer.c **** 
 526:./Drivers/FreeRTOS/stream_buffer.c ****     return xSpace;
 600              		.loc 1 526 12
 601 0068 7B69     		ldr	r3, [r7, #20]
 527:./Drivers/FreeRTOS/stream_buffer.c **** }
 602              		.loc 1 527 1
 603 006a 1846     		mov	r0, r3
 604 006c 1C37     		adds	r7, r7, #28
 605              	.LCFI24:
 606              		.cfi_def_cfa_offset 4
 607 006e BD46     		mov	sp, r7
 608              	.LCFI25:
 609              		.cfi_def_cfa_register 13
 610              		@ sp needed
 611 0070 5DF8047B 		ldr	r7, [sp], #4
 612              	.LCFI26:
 613              		.cfi_restore 7
 614              		.cfi_def_cfa_offset 0
 615 0074 7047     		bx	lr
 616              		.cfi_endproc
 617              	.LFE9:
 619              		.section	.text.xStreamBufferBytesAvailable,"ax",%progbits
 620              		.align	1
 621              		.global	xStreamBufferBytesAvailable
 622              		.syntax unified
 623              		.thumb
 624              		.thumb_func
 625              		.fpu fpv4-sp-d16
 627              	xStreamBufferBytesAvailable:
 628              	.LFB10:
 528:./Drivers/FreeRTOS/stream_buffer.c **** /*-----------------------------------------------------------*/
 529:./Drivers/FreeRTOS/stream_buffer.c **** 
 530:./Drivers/FreeRTOS/stream_buffer.c **** size_t xStreamBufferBytesAvailable( StreamBufferHandle_t xStreamBuffer )
 531:./Drivers/FreeRTOS/stream_buffer.c **** {
 629              		.loc 1 531 1
 630              		.cfi_startproc
 631              		@ args = 0, pretend = 0, frame = 24
 632              		@ frame_needed = 1, uses_anonymous_args = 0
 633 0000 80B5     		push	{r7, lr}
 634              	.LCFI27:
 635              		.cfi_def_cfa_offset 8
ARM GAS  C:\Users\Benson\AppData\Local\Temp\ccHty0UJ.s 			page 25


 636              		.cfi_offset 7, -8
 637              		.cfi_offset 14, -4
 638 0002 86B0     		sub	sp, sp, #24
 639              	.LCFI28:
 640              		.cfi_def_cfa_offset 32
 641 0004 00AF     		add	r7, sp, #0
 642              	.LCFI29:
 643              		.cfi_def_cfa_register 7
 644 0006 7860     		str	r0, [r7, #4]
 532:./Drivers/FreeRTOS/stream_buffer.c ****     const StreamBuffer_t * const pxStreamBuffer = xStreamBuffer;
 645              		.loc 1 532 34
 646 0008 7B68     		ldr	r3, [r7, #4]
 647 000a 7B61     		str	r3, [r7, #20]
 533:./Drivers/FreeRTOS/stream_buffer.c ****     size_t xReturn;
 534:./Drivers/FreeRTOS/stream_buffer.c **** 
 535:./Drivers/FreeRTOS/stream_buffer.c ****     configASSERT( pxStreamBuffer );
 648              		.loc 1 535 5
 649 000c 7B69     		ldr	r3, [r7, #20]
 650 000e 002B     		cmp	r3, #0
 651 0010 0AD1     		bne	.L37
 652              	.LBB99:
 653              	.LBB100:
 198:Drivers/FreeRTOS/portable/GCC/ARM_CM4F/portmacro.h ****         (
 654              		.loc 2 198 9
 655              		.syntax unified
 656              	@ 198 "Drivers/FreeRTOS/portable/GCC/ARM_CM4F/portmacro.h" 1
 657 0012 4FF05003 			mov r3, #80												
 658 0016 83F31188 		msr basepri, r3											
 659 001a BFF36F8F 		isb														
 660 001e BFF34F8F 		dsb														
 661              	
 662              	@ 0 "" 2
 663              		.thumb
 664              		.syntax unified
 665 0022 FB60     		str	r3, [r7, #12]
 666              		.loc 2 206 5
 667 0024 00BF     		nop
 668              	.L38:
 669              	.LBE100:
 670              	.LBE99:
 671              		.loc 1 535 5 discriminator 1
 672 0026 FEE7     		b	.L38
 673              	.L37:
 536:./Drivers/FreeRTOS/stream_buffer.c **** 
 537:./Drivers/FreeRTOS/stream_buffer.c ****     xReturn = prvBytesInBuffer( pxStreamBuffer );
 674              		.loc 1 537 15
 675 0028 7869     		ldr	r0, [r7, #20]
 676 002a FFF7FEFF 		bl	prvBytesInBuffer
 677 002e 3861     		str	r0, [r7, #16]
 538:./Drivers/FreeRTOS/stream_buffer.c ****     return xReturn;
 678              		.loc 1 538 12
 679 0030 3B69     		ldr	r3, [r7, #16]
 539:./Drivers/FreeRTOS/stream_buffer.c **** }
 680              		.loc 1 539 1
 681 0032 1846     		mov	r0, r3
 682 0034 1837     		adds	r7, r7, #24
 683              	.LCFI30:
ARM GAS  C:\Users\Benson\AppData\Local\Temp\ccHty0UJ.s 			page 26


 684              		.cfi_def_cfa_offset 8
 685 0036 BD46     		mov	sp, r7
 686              	.LCFI31:
 687              		.cfi_def_cfa_register 13
 688              		@ sp needed
 689 0038 80BD     		pop	{r7, pc}
 690              		.cfi_endproc
 691              	.LFE10:
 693              		.section	.text.xStreamBufferSend,"ax",%progbits
 694              		.align	1
 695              		.global	xStreamBufferSend
 696              		.syntax unified
 697              		.thumb
 698              		.thumb_func
 699              		.fpu fpv4-sp-d16
 701              	xStreamBufferSend:
 702              	.LFB11:
 540:./Drivers/FreeRTOS/stream_buffer.c **** /*-----------------------------------------------------------*/
 541:./Drivers/FreeRTOS/stream_buffer.c **** 
 542:./Drivers/FreeRTOS/stream_buffer.c **** size_t xStreamBufferSend( StreamBufferHandle_t xStreamBuffer,
 543:./Drivers/FreeRTOS/stream_buffer.c ****                           const void * pvTxData,
 544:./Drivers/FreeRTOS/stream_buffer.c ****                           size_t xDataLengthBytes,
 545:./Drivers/FreeRTOS/stream_buffer.c ****                           TickType_t xTicksToWait )
 546:./Drivers/FreeRTOS/stream_buffer.c **** {
 703              		.loc 1 546 1
 704              		.cfi_startproc
 705              		@ args = 0, pretend = 0, frame = 64
 706              		@ frame_needed = 1, uses_anonymous_args = 0
 707 0000 80B5     		push	{r7, lr}
 708              	.LCFI32:
 709              		.cfi_def_cfa_offset 8
 710              		.cfi_offset 7, -8
 711              		.cfi_offset 14, -4
 712 0002 92B0     		sub	sp, sp, #72
 713              	.LCFI33:
 714              		.cfi_def_cfa_offset 80
 715 0004 02AF     		add	r7, sp, #8
 716              	.LCFI34:
 717              		.cfi_def_cfa 7, 72
 718 0006 F860     		str	r0, [r7, #12]
 719 0008 B960     		str	r1, [r7, #8]
 720 000a 7A60     		str	r2, [r7, #4]
 721 000c 3B60     		str	r3, [r7]
 547:./Drivers/FreeRTOS/stream_buffer.c ****     StreamBuffer_t * const pxStreamBuffer = xStreamBuffer;
 722              		.loc 1 547 28
 723 000e FB68     		ldr	r3, [r7, #12]
 724 0010 7B63     		str	r3, [r7, #52]
 548:./Drivers/FreeRTOS/stream_buffer.c ****     size_t xReturn, xSpace = 0;
 725              		.loc 1 548 21
 726 0012 0023     		movs	r3, #0
 727 0014 FB63     		str	r3, [r7, #60]
 549:./Drivers/FreeRTOS/stream_buffer.c ****     size_t xRequiredSpace = xDataLengthBytes;
 728              		.loc 1 549 12
 729 0016 7B68     		ldr	r3, [r7, #4]
 730 0018 BB63     		str	r3, [r7, #56]
 550:./Drivers/FreeRTOS/stream_buffer.c ****     TimeOut_t xTimeOut;
 551:./Drivers/FreeRTOS/stream_buffer.c ****     size_t xMaxReportedSpace = 0;
ARM GAS  C:\Users\Benson\AppData\Local\Temp\ccHty0UJ.s 			page 27


 731              		.loc 1 551 12
 732 001a 0023     		movs	r3, #0
 733 001c 3B63     		str	r3, [r7, #48]
 552:./Drivers/FreeRTOS/stream_buffer.c **** 
 553:./Drivers/FreeRTOS/stream_buffer.c ****     configASSERT( pvTxData );
 734              		.loc 1 553 5
 735 001e BB68     		ldr	r3, [r7, #8]
 736 0020 002B     		cmp	r3, #0
 737 0022 0AD1     		bne	.L41
 738              	.LBB101:
 739              	.LBB102:
 198:Drivers/FreeRTOS/portable/GCC/ARM_CM4F/portmacro.h ****         (
 740              		.loc 2 198 9
 741              		.syntax unified
 742              	@ 198 "Drivers/FreeRTOS/portable/GCC/ARM_CM4F/portmacro.h" 1
 743 0024 4FF05003 			mov r3, #80												
 744 0028 83F31188 		msr basepri, r3											
 745 002c BFF36F8F 		isb														
 746 0030 BFF34F8F 		dsb														
 747              	
 748              	@ 0 "" 2
 749              		.thumb
 750              		.syntax unified
 751 0034 BB62     		str	r3, [r7, #40]
 752              		.loc 2 206 5
 753 0036 00BF     		nop
 754              	.L42:
 755              	.LBE102:
 756              	.LBE101:
 757              		.loc 1 553 5 discriminator 1
 758 0038 FEE7     		b	.L42
 759              	.L41:
 554:./Drivers/FreeRTOS/stream_buffer.c ****     configASSERT( pxStreamBuffer );
 760              		.loc 1 554 5
 761 003a 7B6B     		ldr	r3, [r7, #52]
 762 003c 002B     		cmp	r3, #0
 763 003e 0AD1     		bne	.L43
 764              	.LBB103:
 765              	.LBB104:
 198:Drivers/FreeRTOS/portable/GCC/ARM_CM4F/portmacro.h ****         (
 766              		.loc 2 198 9
 767              		.syntax unified
 768              	@ 198 "Drivers/FreeRTOS/portable/GCC/ARM_CM4F/portmacro.h" 1
 769 0040 4FF05003 			mov r3, #80												
 770 0044 83F31188 		msr basepri, r3											
 771 0048 BFF36F8F 		isb														
 772 004c BFF34F8F 		dsb														
 773              	
 774              	@ 0 "" 2
 775              		.thumb
 776              		.syntax unified
 777 0050 7B62     		str	r3, [r7, #36]
 778              		.loc 2 206 5
 779 0052 00BF     		nop
 780              	.L44:
 781              	.LBE104:
 782              	.LBE103:
ARM GAS  C:\Users\Benson\AppData\Local\Temp\ccHty0UJ.s 			page 28


 783              		.loc 1 554 5 discriminator 2
 784 0054 FEE7     		b	.L44
 785              	.L43:
 555:./Drivers/FreeRTOS/stream_buffer.c **** 
 556:./Drivers/FreeRTOS/stream_buffer.c ****     /* The maximum amount of space a stream buffer will ever report is its length
 557:./Drivers/FreeRTOS/stream_buffer.c ****      * minus 1. */
 558:./Drivers/FreeRTOS/stream_buffer.c ****     xMaxReportedSpace = pxStreamBuffer->xLength - ( size_t ) 1;
 786              		.loc 1 558 39
 787 0056 7B6B     		ldr	r3, [r7, #52]
 788 0058 9B68     		ldr	r3, [r3, #8]
 789              		.loc 1 558 23
 790 005a 013B     		subs	r3, r3, #1
 791 005c 3B63     		str	r3, [r7, #48]
 559:./Drivers/FreeRTOS/stream_buffer.c **** 
 560:./Drivers/FreeRTOS/stream_buffer.c ****     /* This send function is used to write to both message buffers and stream
 561:./Drivers/FreeRTOS/stream_buffer.c ****      * buffers.  If this is a message buffer then the space needed must be
 562:./Drivers/FreeRTOS/stream_buffer.c ****      * increased by the amount of bytes needed to store the length of the
 563:./Drivers/FreeRTOS/stream_buffer.c ****      * message. */
 564:./Drivers/FreeRTOS/stream_buffer.c ****     if( ( pxStreamBuffer->ucFlags & sbFLAGS_IS_MESSAGE_BUFFER ) != ( uint8_t ) 0 )
 792              		.loc 1 564 25
 793 005e 7B6B     		ldr	r3, [r7, #52]
 794 0060 1B7F     		ldrb	r3, [r3, #28]	@ zero_extendqisi2
 795              		.loc 1 564 35
 796 0062 03F00103 		and	r3, r3, #1
 797              		.loc 1 564 7
 798 0066 002B     		cmp	r3, #0
 799 0068 18D0     		beq	.L45
 565:./Drivers/FreeRTOS/stream_buffer.c ****     {
 566:./Drivers/FreeRTOS/stream_buffer.c ****         xRequiredSpace += sbBYTES_TO_STORE_MESSAGE_LENGTH;
 800              		.loc 1 566 24
 801 006a BB6B     		ldr	r3, [r7, #56]
 802 006c 0433     		adds	r3, r3, #4
 803 006e BB63     		str	r3, [r7, #56]
 567:./Drivers/FreeRTOS/stream_buffer.c **** 
 568:./Drivers/FreeRTOS/stream_buffer.c ****         /* Overflow? */
 569:./Drivers/FreeRTOS/stream_buffer.c ****         configASSERT( xRequiredSpace > xDataLengthBytes );
 804              		.loc 1 569 9
 805 0070 BA6B     		ldr	r2, [r7, #56]
 806 0072 7B68     		ldr	r3, [r7, #4]
 807 0074 9A42     		cmp	r2, r3
 808 0076 0AD8     		bhi	.L46
 809              	.LBB105:
 810              	.LBB106:
 198:Drivers/FreeRTOS/portable/GCC/ARM_CM4F/portmacro.h ****         (
 811              		.loc 2 198 9
 812              		.syntax unified
 813              	@ 198 "Drivers/FreeRTOS/portable/GCC/ARM_CM4F/portmacro.h" 1
 814 0078 4FF05003 			mov r3, #80												
 815 007c 83F31188 		msr basepri, r3											
 816 0080 BFF36F8F 		isb														
 817 0084 BFF34F8F 		dsb														
 818              	
 819              	@ 0 "" 2
 820              		.thumb
 821              		.syntax unified
 822 0088 3B62     		str	r3, [r7, #32]
 823              		.loc 2 206 5
ARM GAS  C:\Users\Benson\AppData\Local\Temp\ccHty0UJ.s 			page 29


 824 008a 00BF     		nop
 825              	.L47:
 826              	.LBE106:
 827              	.LBE105:
 828              		.loc 1 569 9 discriminator 3
 829 008c FEE7     		b	.L47
 830              	.L46:
 570:./Drivers/FreeRTOS/stream_buffer.c **** 
 571:./Drivers/FreeRTOS/stream_buffer.c ****         /* If this is a message buffer then it must be possible to write the
 572:./Drivers/FreeRTOS/stream_buffer.c ****          * whole message. */
 573:./Drivers/FreeRTOS/stream_buffer.c ****         if( xRequiredSpace > xMaxReportedSpace )
 831              		.loc 1 573 11
 832 008e BA6B     		ldr	r2, [r7, #56]
 833 0090 3B6B     		ldr	r3, [r7, #48]
 834 0092 9A42     		cmp	r2, r3
 835 0094 08D9     		bls	.L48
 574:./Drivers/FreeRTOS/stream_buffer.c ****         {
 575:./Drivers/FreeRTOS/stream_buffer.c ****             /* The message would not fit even if the entire buffer was empty,
 576:./Drivers/FreeRTOS/stream_buffer.c ****              * so don't wait for space. */
 577:./Drivers/FreeRTOS/stream_buffer.c ****             xTicksToWait = ( TickType_t ) 0;
 836              		.loc 1 577 26
 837 0096 0023     		movs	r3, #0
 838 0098 3B60     		str	r3, [r7]
 839 009a 05E0     		b	.L48
 840              	.L45:
 578:./Drivers/FreeRTOS/stream_buffer.c ****         }
 579:./Drivers/FreeRTOS/stream_buffer.c ****         else
 580:./Drivers/FreeRTOS/stream_buffer.c ****         {
 581:./Drivers/FreeRTOS/stream_buffer.c ****             mtCOVERAGE_TEST_MARKER();
 582:./Drivers/FreeRTOS/stream_buffer.c ****         }
 583:./Drivers/FreeRTOS/stream_buffer.c ****     }
 584:./Drivers/FreeRTOS/stream_buffer.c ****     else
 585:./Drivers/FreeRTOS/stream_buffer.c ****     {
 586:./Drivers/FreeRTOS/stream_buffer.c ****         /* If this is a stream buffer then it is acceptable to write only part
 587:./Drivers/FreeRTOS/stream_buffer.c ****          * of the message to the buffer.  Cap the length to the total length of
 588:./Drivers/FreeRTOS/stream_buffer.c ****          * the buffer. */
 589:./Drivers/FreeRTOS/stream_buffer.c ****         if( xRequiredSpace > xMaxReportedSpace )
 841              		.loc 1 589 11
 842 009c BA6B     		ldr	r2, [r7, #56]
 843 009e 3B6B     		ldr	r3, [r7, #48]
 844 00a0 9A42     		cmp	r2, r3
 845 00a2 01D9     		bls	.L48
 590:./Drivers/FreeRTOS/stream_buffer.c ****         {
 591:./Drivers/FreeRTOS/stream_buffer.c ****             xRequiredSpace = xMaxReportedSpace;
 846              		.loc 1 591 28
 847 00a4 3B6B     		ldr	r3, [r7, #48]
 848 00a6 BB63     		str	r3, [r7, #56]
 849              	.L48:
 592:./Drivers/FreeRTOS/stream_buffer.c ****         }
 593:./Drivers/FreeRTOS/stream_buffer.c ****         else
 594:./Drivers/FreeRTOS/stream_buffer.c ****         {
 595:./Drivers/FreeRTOS/stream_buffer.c ****             mtCOVERAGE_TEST_MARKER();
 596:./Drivers/FreeRTOS/stream_buffer.c ****         }
 597:./Drivers/FreeRTOS/stream_buffer.c ****     }
 598:./Drivers/FreeRTOS/stream_buffer.c **** 
 599:./Drivers/FreeRTOS/stream_buffer.c ****     if( xTicksToWait != ( TickType_t ) 0 )
 850              		.loc 1 599 22
ARM GAS  C:\Users\Benson\AppData\Local\Temp\ccHty0UJ.s 			page 30


 851 00a8 3B68     		ldr	r3, [r7]
 852              		.loc 1 599 7
 853 00aa 002B     		cmp	r3, #0
 854 00ac 41D0     		beq	.L49
 600:./Drivers/FreeRTOS/stream_buffer.c ****     {
 601:./Drivers/FreeRTOS/stream_buffer.c ****         vTaskSetTimeOutState( &xTimeOut );
 855              		.loc 1 601 9
 856 00ae 07F11403 		add	r3, r7, #20
 857 00b2 1846     		mov	r0, r3
 858 00b4 FFF7FEFF 		bl	vTaskSetTimeOutState
 859              	.L55:
 602:./Drivers/FreeRTOS/stream_buffer.c **** 
 603:./Drivers/FreeRTOS/stream_buffer.c ****         do
 604:./Drivers/FreeRTOS/stream_buffer.c ****         {
 605:./Drivers/FreeRTOS/stream_buffer.c ****             /* Wait until the required number of bytes are free in the message
 606:./Drivers/FreeRTOS/stream_buffer.c ****              * buffer. */
 607:./Drivers/FreeRTOS/stream_buffer.c ****             taskENTER_CRITICAL();
 860              		.loc 1 607 13
 861 00b8 FFF7FEFF 		bl	vPortEnterCritical
 608:./Drivers/FreeRTOS/stream_buffer.c ****             {
 609:./Drivers/FreeRTOS/stream_buffer.c ****                 xSpace = xStreamBufferSpacesAvailable( pxStreamBuffer );
 862              		.loc 1 609 26
 863 00bc 786B     		ldr	r0, [r7, #52]
 864 00be FFF7FEFF 		bl	xStreamBufferSpacesAvailable
 865 00c2 F863     		str	r0, [r7, #60]
 610:./Drivers/FreeRTOS/stream_buffer.c **** 
 611:./Drivers/FreeRTOS/stream_buffer.c ****                 if( xSpace < xRequiredSpace )
 866              		.loc 1 611 19
 867 00c4 FA6B     		ldr	r2, [r7, #60]
 868 00c6 BB6B     		ldr	r3, [r7, #56]
 869 00c8 9A42     		cmp	r2, r3
 870 00ca 18D2     		bcs	.L50
 612:./Drivers/FreeRTOS/stream_buffer.c ****                 {
 613:./Drivers/FreeRTOS/stream_buffer.c ****                     /* Clear notification state as going to wait for space. */
 614:./Drivers/FreeRTOS/stream_buffer.c ****                     ( void ) xTaskNotifyStateClear( NULL );
 871              		.loc 1 614 30
 872 00cc 0021     		movs	r1, #0
 873 00ce 0020     		movs	r0, #0
 874 00d0 FFF7FEFF 		bl	xTaskGenericNotifyStateClear
 615:./Drivers/FreeRTOS/stream_buffer.c **** 
 616:./Drivers/FreeRTOS/stream_buffer.c ****                     /* Should only be one writer. */
 617:./Drivers/FreeRTOS/stream_buffer.c ****                     configASSERT( pxStreamBuffer->xTaskWaitingToSend == NULL );
 875              		.loc 1 617 21
 876 00d4 7B6B     		ldr	r3, [r7, #52]
 877 00d6 5B69     		ldr	r3, [r3, #20]
 878 00d8 002B     		cmp	r3, #0
 879 00da 0AD0     		beq	.L51
 880              	.LBB107:
 881              	.LBB108:
 198:Drivers/FreeRTOS/portable/GCC/ARM_CM4F/portmacro.h ****         (
 882              		.loc 2 198 9
 883              		.syntax unified
 884              	@ 198 "Drivers/FreeRTOS/portable/GCC/ARM_CM4F/portmacro.h" 1
 885 00dc 4FF05003 			mov r3, #80												
 886 00e0 83F31188 		msr basepri, r3											
 887 00e4 BFF36F8F 		isb														
 888 00e8 BFF34F8F 		dsb														
ARM GAS  C:\Users\Benson\AppData\Local\Temp\ccHty0UJ.s 			page 31


 889              	
 890              	@ 0 "" 2
 891              		.thumb
 892              		.syntax unified
 893 00ec FB61     		str	r3, [r7, #28]
 894              		.loc 2 206 5
 895 00ee 00BF     		nop
 896              	.L52:
 897              	.LBE108:
 898              	.LBE107:
 899              		.loc 1 617 21 discriminator 4
 900 00f0 FEE7     		b	.L52
 901              	.L51:
 618:./Drivers/FreeRTOS/stream_buffer.c ****                     pxStreamBuffer->xTaskWaitingToSend = xTaskGetCurrentTaskHandle();
 902              		.loc 1 618 58
 903 00f2 FFF7FEFF 		bl	xTaskGetCurrentTaskHandle
 904 00f6 0246     		mov	r2, r0
 905              		.loc 1 618 56
 906 00f8 7B6B     		ldr	r3, [r7, #52]
 907 00fa 5A61     		str	r2, [r3, #20]
 908 00fc 02E0     		b	.L60
 909              	.L50:
 619:./Drivers/FreeRTOS/stream_buffer.c ****                 }
 620:./Drivers/FreeRTOS/stream_buffer.c ****                 else
 621:./Drivers/FreeRTOS/stream_buffer.c ****                 {
 622:./Drivers/FreeRTOS/stream_buffer.c ****                     taskEXIT_CRITICAL();
 910              		.loc 1 622 21
 911 00fe FFF7FEFF 		bl	vPortExitCritical
 623:./Drivers/FreeRTOS/stream_buffer.c ****                     break;
 912              		.loc 1 623 21
 913 0102 16E0     		b	.L49
 914              	.L60:
 624:./Drivers/FreeRTOS/stream_buffer.c ****                 }
 625:./Drivers/FreeRTOS/stream_buffer.c ****             }
 626:./Drivers/FreeRTOS/stream_buffer.c ****             taskEXIT_CRITICAL();
 915              		.loc 1 626 13
 916 0104 FFF7FEFF 		bl	vPortExitCritical
 627:./Drivers/FreeRTOS/stream_buffer.c **** 
 628:./Drivers/FreeRTOS/stream_buffer.c ****             traceBLOCKING_ON_STREAM_BUFFER_SEND( xStreamBuffer );
 629:./Drivers/FreeRTOS/stream_buffer.c ****             ( void ) xTaskNotifyWait( ( uint32_t ) 0, ( uint32_t ) 0, NULL, xTicksToWait );
 917              		.loc 1 629 13
 918 0108 3B68     		ldr	r3, [r7]
 919              		.loc 1 629 22
 920 010a 0093     		str	r3, [sp]
 921 010c 0023     		movs	r3, #0
 922 010e 0022     		movs	r2, #0
 923 0110 0021     		movs	r1, #0
 924 0112 0020     		movs	r0, #0
 925 0114 FFF7FEFF 		bl	xTaskGenericNotifyWait
 630:./Drivers/FreeRTOS/stream_buffer.c ****             pxStreamBuffer->xTaskWaitingToSend = NULL;
 926              		.loc 1 630 48
 927 0118 7B6B     		ldr	r3, [r7, #52]
 928 011a 0022     		movs	r2, #0
 929 011c 5A61     		str	r2, [r3, #20]
 631:./Drivers/FreeRTOS/stream_buffer.c ****         } while( xTaskCheckForTimeOut( &xTimeOut, &xTicksToWait ) == pdFALSE );
 930              		.loc 1 631 18
 931 011e 3A46     		mov	r2, r7
ARM GAS  C:\Users\Benson\AppData\Local\Temp\ccHty0UJ.s 			page 32


 932 0120 07F11403 		add	r3, r7, #20
 933 0124 1146     		mov	r1, r2
 934 0126 1846     		mov	r0, r3
 935 0128 FFF7FEFF 		bl	xTaskCheckForTimeOut
 936 012c 0346     		mov	r3, r0
 937              		.loc 1 631 9
 938 012e 002B     		cmp	r3, #0
 939 0130 C2D0     		beq	.L55
 940              	.L49:
 632:./Drivers/FreeRTOS/stream_buffer.c ****     }
 633:./Drivers/FreeRTOS/stream_buffer.c ****     else
 634:./Drivers/FreeRTOS/stream_buffer.c ****     {
 635:./Drivers/FreeRTOS/stream_buffer.c ****         mtCOVERAGE_TEST_MARKER();
 636:./Drivers/FreeRTOS/stream_buffer.c ****     }
 637:./Drivers/FreeRTOS/stream_buffer.c **** 
 638:./Drivers/FreeRTOS/stream_buffer.c ****     if( xSpace == ( size_t ) 0 )
 941              		.loc 1 638 7
 942 0132 FB6B     		ldr	r3, [r7, #60]
 943 0134 002B     		cmp	r3, #0
 944 0136 03D1     		bne	.L56
 639:./Drivers/FreeRTOS/stream_buffer.c ****     {
 640:./Drivers/FreeRTOS/stream_buffer.c ****         xSpace = xStreamBufferSpacesAvailable( pxStreamBuffer );
 945              		.loc 1 640 18
 946 0138 786B     		ldr	r0, [r7, #52]
 947 013a FFF7FEFF 		bl	xStreamBufferSpacesAvailable
 948 013e F863     		str	r0, [r7, #60]
 949              	.L56:
 641:./Drivers/FreeRTOS/stream_buffer.c ****     }
 642:./Drivers/FreeRTOS/stream_buffer.c ****     else
 643:./Drivers/FreeRTOS/stream_buffer.c ****     {
 644:./Drivers/FreeRTOS/stream_buffer.c ****         mtCOVERAGE_TEST_MARKER();
 645:./Drivers/FreeRTOS/stream_buffer.c ****     }
 646:./Drivers/FreeRTOS/stream_buffer.c **** 
 647:./Drivers/FreeRTOS/stream_buffer.c ****     xReturn = prvWriteMessageToBuffer( pxStreamBuffer, pvTxData, xDataLengthBytes, xSpace, xRequire
 950              		.loc 1 647 15
 951 0140 BB6B     		ldr	r3, [r7, #56]
 952 0142 0093     		str	r3, [sp]
 953 0144 FB6B     		ldr	r3, [r7, #60]
 954 0146 7A68     		ldr	r2, [r7, #4]
 955 0148 B968     		ldr	r1, [r7, #8]
 956 014a 786B     		ldr	r0, [r7, #52]
 957 014c FFF7FEFF 		bl	prvWriteMessageToBuffer
 958 0150 F862     		str	r0, [r7, #44]
 648:./Drivers/FreeRTOS/stream_buffer.c **** 
 649:./Drivers/FreeRTOS/stream_buffer.c ****     if( xReturn > ( size_t ) 0 )
 959              		.loc 1 649 7
 960 0152 FB6A     		ldr	r3, [r7, #44]
 961 0154 002B     		cmp	r3, #0
 962 0156 1BD0     		beq	.L57
 650:./Drivers/FreeRTOS/stream_buffer.c ****     {
 651:./Drivers/FreeRTOS/stream_buffer.c ****         traceSTREAM_BUFFER_SEND( xStreamBuffer, xReturn );
 652:./Drivers/FreeRTOS/stream_buffer.c **** 
 653:./Drivers/FreeRTOS/stream_buffer.c ****         /* Was a task waiting for the data? */
 654:./Drivers/FreeRTOS/stream_buffer.c ****         if( prvBytesInBuffer( pxStreamBuffer ) >= pxStreamBuffer->xTriggerLevelBytes )
 963              		.loc 1 654 13
 964 0158 786B     		ldr	r0, [r7, #52]
 965 015a FFF7FEFF 		bl	prvBytesInBuffer
ARM GAS  C:\Users\Benson\AppData\Local\Temp\ccHty0UJ.s 			page 33


 966 015e 0246     		mov	r2, r0
 967              		.loc 1 654 65
 968 0160 7B6B     		ldr	r3, [r7, #52]
 969 0162 DB68     		ldr	r3, [r3, #12]
 970              		.loc 1 654 11
 971 0164 9A42     		cmp	r2, r3
 972 0166 13D3     		bcc	.L57
 655:./Drivers/FreeRTOS/stream_buffer.c ****         {
 656:./Drivers/FreeRTOS/stream_buffer.c ****             sbSEND_COMPLETED( pxStreamBuffer );
 973              		.loc 1 656 13
 974 0168 FFF7FEFF 		bl	vTaskSuspendAll
 975 016c 7B6B     		ldr	r3, [r7, #52]
 976 016e 1B69     		ldr	r3, [r3, #16]
 977 0170 002B     		cmp	r3, #0
 978 0172 0BD0     		beq	.L58
 979              		.loc 1 656 13 is_stmt 0 discriminator 1
 980 0174 7B6B     		ldr	r3, [r7, #52]
 981 0176 1869     		ldr	r0, [r3, #16]
 982 0178 0023     		movs	r3, #0
 983 017a 0093     		str	r3, [sp]
 984 017c 0023     		movs	r3, #0
 985 017e 0022     		movs	r2, #0
 986 0180 0021     		movs	r1, #0
 987 0182 FFF7FEFF 		bl	xTaskGenericNotify
 988 0186 7B6B     		ldr	r3, [r7, #52]
 989 0188 0022     		movs	r2, #0
 990 018a 1A61     		str	r2, [r3, #16]
 991              	.L58:
 992              		.loc 1 656 13 discriminator 3
 993 018c FFF7FEFF 		bl	xTaskResumeAll
 994              	.L57:
 657:./Drivers/FreeRTOS/stream_buffer.c ****         }
 658:./Drivers/FreeRTOS/stream_buffer.c ****         else
 659:./Drivers/FreeRTOS/stream_buffer.c ****         {
 660:./Drivers/FreeRTOS/stream_buffer.c ****             mtCOVERAGE_TEST_MARKER();
 661:./Drivers/FreeRTOS/stream_buffer.c ****         }
 662:./Drivers/FreeRTOS/stream_buffer.c ****     }
 663:./Drivers/FreeRTOS/stream_buffer.c ****     else
 664:./Drivers/FreeRTOS/stream_buffer.c ****     {
 665:./Drivers/FreeRTOS/stream_buffer.c ****         mtCOVERAGE_TEST_MARKER();
 666:./Drivers/FreeRTOS/stream_buffer.c ****         traceSTREAM_BUFFER_SEND_FAILED( xStreamBuffer );
 667:./Drivers/FreeRTOS/stream_buffer.c ****     }
 668:./Drivers/FreeRTOS/stream_buffer.c **** 
 669:./Drivers/FreeRTOS/stream_buffer.c ****     return xReturn;
 995              		.loc 1 669 12 is_stmt 1
 996 0190 FB6A     		ldr	r3, [r7, #44]
 670:./Drivers/FreeRTOS/stream_buffer.c **** }
 997              		.loc 1 670 1
 998 0192 1846     		mov	r0, r3
 999 0194 4037     		adds	r7, r7, #64
 1000              	.LCFI35:
 1001              		.cfi_def_cfa_offset 8
 1002 0196 BD46     		mov	sp, r7
 1003              	.LCFI36:
 1004              		.cfi_def_cfa_register 13
 1005              		@ sp needed
 1006 0198 80BD     		pop	{r7, pc}
ARM GAS  C:\Users\Benson\AppData\Local\Temp\ccHty0UJ.s 			page 34


 1007              		.cfi_endproc
 1008              	.LFE11:
 1010              		.section	.text.xStreamBufferSendFromISR,"ax",%progbits
 1011              		.align	1
 1012              		.global	xStreamBufferSendFromISR
 1013              		.syntax unified
 1014              		.thumb
 1015              		.thumb_func
 1016              		.fpu fpv4-sp-d16
 1018              	xStreamBufferSendFromISR:
 1019              	.LFB12:
 671:./Drivers/FreeRTOS/stream_buffer.c **** /*-----------------------------------------------------------*/
 672:./Drivers/FreeRTOS/stream_buffer.c **** 
 673:./Drivers/FreeRTOS/stream_buffer.c **** size_t xStreamBufferSendFromISR( StreamBufferHandle_t xStreamBuffer,
 674:./Drivers/FreeRTOS/stream_buffer.c ****                                  const void * pvTxData,
 675:./Drivers/FreeRTOS/stream_buffer.c ****                                  size_t xDataLengthBytes,
 676:./Drivers/FreeRTOS/stream_buffer.c ****                                  BaseType_t * const pxHigherPriorityTaskWoken )
 677:./Drivers/FreeRTOS/stream_buffer.c **** {
 1020              		.loc 1 677 1
 1021              		.cfi_startproc
 1022              		@ args = 0, pretend = 0, frame = 56
 1023              		@ frame_needed = 1, uses_anonymous_args = 0
 1024 0000 80B5     		push	{r7, lr}
 1025              	.LCFI37:
 1026              		.cfi_def_cfa_offset 8
 1027              		.cfi_offset 7, -8
 1028              		.cfi_offset 14, -4
 1029 0002 90B0     		sub	sp, sp, #64
 1030              	.LCFI38:
 1031              		.cfi_def_cfa_offset 72
 1032 0004 02AF     		add	r7, sp, #8
 1033              	.LCFI39:
 1034              		.cfi_def_cfa 7, 64
 1035 0006 F860     		str	r0, [r7, #12]
 1036 0008 B960     		str	r1, [r7, #8]
 1037 000a 7A60     		str	r2, [r7, #4]
 1038 000c 3B60     		str	r3, [r7]
 678:./Drivers/FreeRTOS/stream_buffer.c ****     StreamBuffer_t * const pxStreamBuffer = xStreamBuffer;
 1039              		.loc 1 678 28
 1040 000e FB68     		ldr	r3, [r7, #12]
 1041 0010 3B63     		str	r3, [r7, #48]
 679:./Drivers/FreeRTOS/stream_buffer.c ****     size_t xReturn, xSpace;
 680:./Drivers/FreeRTOS/stream_buffer.c ****     size_t xRequiredSpace = xDataLengthBytes;
 1042              		.loc 1 680 12
 1043 0012 7B68     		ldr	r3, [r7, #4]
 1044 0014 7B63     		str	r3, [r7, #52]
 681:./Drivers/FreeRTOS/stream_buffer.c **** 
 682:./Drivers/FreeRTOS/stream_buffer.c ****     configASSERT( pvTxData );
 1045              		.loc 1 682 5
 1046 0016 BB68     		ldr	r3, [r7, #8]
 1047 0018 002B     		cmp	r3, #0
 1048 001a 0AD1     		bne	.L62
 1049              	.LBB109:
 1050              	.LBB110:
 198:Drivers/FreeRTOS/portable/GCC/ARM_CM4F/portmacro.h ****         (
 1051              		.loc 2 198 9
 1052              		.syntax unified
ARM GAS  C:\Users\Benson\AppData\Local\Temp\ccHty0UJ.s 			page 35


 1053              	@ 198 "Drivers/FreeRTOS/portable/GCC/ARM_CM4F/portmacro.h" 1
 1054 001c 4FF05003 			mov r3, #80												
 1055 0020 83F31188 		msr basepri, r3											
 1056 0024 BFF36F8F 		isb														
 1057 0028 BFF34F8F 		dsb														
 1058              	
 1059              	@ 0 "" 2
 1060              		.thumb
 1061              		.syntax unified
 1062 002c 3B62     		str	r3, [r7, #32]
 1063              		.loc 2 206 5
 1064 002e 00BF     		nop
 1065              	.L63:
 1066              	.LBE110:
 1067              	.LBE109:
 1068              		.loc 1 682 5 discriminator 1
 1069 0030 FEE7     		b	.L63
 1070              	.L62:
 683:./Drivers/FreeRTOS/stream_buffer.c ****     configASSERT( pxStreamBuffer );
 1071              		.loc 1 683 5
 1072 0032 3B6B     		ldr	r3, [r7, #48]
 1073 0034 002B     		cmp	r3, #0
 1074 0036 0AD1     		bne	.L64
 1075              	.LBB111:
 1076              	.LBB112:
 198:Drivers/FreeRTOS/portable/GCC/ARM_CM4F/portmacro.h ****         (
 1077              		.loc 2 198 9
 1078              		.syntax unified
 1079              	@ 198 "Drivers/FreeRTOS/portable/GCC/ARM_CM4F/portmacro.h" 1
 1080 0038 4FF05003 			mov r3, #80												
 1081 003c 83F31188 		msr basepri, r3											
 1082 0040 BFF36F8F 		isb														
 1083 0044 BFF34F8F 		dsb														
 1084              	
 1085              	@ 0 "" 2
 1086              		.thumb
 1087              		.syntax unified
 1088 0048 FB61     		str	r3, [r7, #28]
 1089              		.loc 2 206 5
 1090 004a 00BF     		nop
 1091              	.L65:
 1092              	.LBE112:
 1093              	.LBE111:
 1094              		.loc 1 683 5 discriminator 2
 1095 004c FEE7     		b	.L65
 1096              	.L64:
 684:./Drivers/FreeRTOS/stream_buffer.c **** 
 685:./Drivers/FreeRTOS/stream_buffer.c ****     /* This send function is used to write to both message buffers and stream
 686:./Drivers/FreeRTOS/stream_buffer.c ****      * buffers.  If this is a message buffer then the space needed must be
 687:./Drivers/FreeRTOS/stream_buffer.c ****      * increased by the amount of bytes needed to store the length of the
 688:./Drivers/FreeRTOS/stream_buffer.c ****      * message. */
 689:./Drivers/FreeRTOS/stream_buffer.c ****     if( ( pxStreamBuffer->ucFlags & sbFLAGS_IS_MESSAGE_BUFFER ) != ( uint8_t ) 0 )
 1097              		.loc 1 689 25
 1098 004e 3B6B     		ldr	r3, [r7, #48]
 1099 0050 1B7F     		ldrb	r3, [r3, #28]	@ zero_extendqisi2
 1100              		.loc 1 689 35
 1101 0052 03F00103 		and	r3, r3, #1
ARM GAS  C:\Users\Benson\AppData\Local\Temp\ccHty0UJ.s 			page 36


 1102              		.loc 1 689 7
 1103 0056 002B     		cmp	r3, #0
 1104 0058 02D0     		beq	.L66
 690:./Drivers/FreeRTOS/stream_buffer.c ****     {
 691:./Drivers/FreeRTOS/stream_buffer.c ****         xRequiredSpace += sbBYTES_TO_STORE_MESSAGE_LENGTH;
 1105              		.loc 1 691 24
 1106 005a 7B6B     		ldr	r3, [r7, #52]
 1107 005c 0433     		adds	r3, r3, #4
 1108 005e 7B63     		str	r3, [r7, #52]
 1109              	.L66:
 692:./Drivers/FreeRTOS/stream_buffer.c ****     }
 693:./Drivers/FreeRTOS/stream_buffer.c ****     else
 694:./Drivers/FreeRTOS/stream_buffer.c ****     {
 695:./Drivers/FreeRTOS/stream_buffer.c ****         mtCOVERAGE_TEST_MARKER();
 696:./Drivers/FreeRTOS/stream_buffer.c ****     }
 697:./Drivers/FreeRTOS/stream_buffer.c **** 
 698:./Drivers/FreeRTOS/stream_buffer.c ****     xSpace = xStreamBufferSpacesAvailable( pxStreamBuffer );
 1110              		.loc 1 698 14
 1111 0060 386B     		ldr	r0, [r7, #48]
 1112 0062 FFF7FEFF 		bl	xStreamBufferSpacesAvailable
 1113 0066 F862     		str	r0, [r7, #44]
 699:./Drivers/FreeRTOS/stream_buffer.c ****     xReturn = prvWriteMessageToBuffer( pxStreamBuffer, pvTxData, xDataLengthBytes, xSpace, xRequire
 1114              		.loc 1 699 15
 1115 0068 7B6B     		ldr	r3, [r7, #52]
 1116 006a 0093     		str	r3, [sp]
 1117 006c FB6A     		ldr	r3, [r7, #44]
 1118 006e 7A68     		ldr	r2, [r7, #4]
 1119 0070 B968     		ldr	r1, [r7, #8]
 1120 0072 386B     		ldr	r0, [r7, #48]
 1121 0074 FFF7FEFF 		bl	prvWriteMessageToBuffer
 1122 0078 B862     		str	r0, [r7, #40]
 700:./Drivers/FreeRTOS/stream_buffer.c **** 
 701:./Drivers/FreeRTOS/stream_buffer.c ****     if( xReturn > ( size_t ) 0 )
 1123              		.loc 1 701 7
 1124 007a BB6A     		ldr	r3, [r7, #40]
 1125 007c 002B     		cmp	r3, #0
 1126 007e 2DD0     		beq	.L67
 702:./Drivers/FreeRTOS/stream_buffer.c ****     {
 703:./Drivers/FreeRTOS/stream_buffer.c ****         /* Was a task waiting for the data? */
 704:./Drivers/FreeRTOS/stream_buffer.c ****         if( prvBytesInBuffer( pxStreamBuffer ) >= pxStreamBuffer->xTriggerLevelBytes )
 1127              		.loc 1 704 13
 1128 0080 386B     		ldr	r0, [r7, #48]
 1129 0082 FFF7FEFF 		bl	prvBytesInBuffer
 1130 0086 0246     		mov	r2, r0
 1131              		.loc 1 704 65
 1132 0088 3B6B     		ldr	r3, [r7, #48]
 1133 008a DB68     		ldr	r3, [r3, #12]
 1134              		.loc 1 704 11
 1135 008c 9A42     		cmp	r2, r3
 1136 008e 25D3     		bcc	.L67
 1137              	.LBB113:
 1138              	.LBB114:
 1139              	.LBB115:
 207:Drivers/FreeRTOS/portable/GCC/ARM_CM4F/portmacro.h **** 
 208:Drivers/FreeRTOS/portable/GCC/ARM_CM4F/portmacro.h **** /*-----------------------------------------------------------*/
 209:Drivers/FreeRTOS/portable/GCC/ARM_CM4F/portmacro.h **** 
 210:Drivers/FreeRTOS/portable/GCC/ARM_CM4F/portmacro.h ****     portFORCE_INLINE static uint32_t ulPortRaiseBASEPRI( void )
ARM GAS  C:\Users\Benson\AppData\Local\Temp\ccHty0UJ.s 			page 37


 211:Drivers/FreeRTOS/portable/GCC/ARM_CM4F/portmacro.h ****     {
 212:Drivers/FreeRTOS/portable/GCC/ARM_CM4F/portmacro.h ****         uint32_t ulOriginalBASEPRI, ulNewBASEPRI;
 213:Drivers/FreeRTOS/portable/GCC/ARM_CM4F/portmacro.h **** 
 214:Drivers/FreeRTOS/portable/GCC/ARM_CM4F/portmacro.h ****         __asm volatile
 1140              		.loc 2 214 9
 1141              		.syntax unified
 1142              	@ 214 "Drivers/FreeRTOS/portable/GCC/ARM_CM4F/portmacro.h" 1
 1143 0090 EFF31182 			mrs r2, basepri											
 1144 0094 4FF05003 		mov r3, #80												
 1145 0098 83F31188 		msr basepri, r3											
 1146 009c BFF36F8F 		isb														
 1147 00a0 BFF34F8F 		dsb														
 1148              	
 1149              	@ 0 "" 2
 1150              		.thumb
 1151              		.syntax unified
 1152 00a4 BA61     		str	r2, [r7, #24]
 1153 00a6 7B61     		str	r3, [r7, #20]
 215:Drivers/FreeRTOS/portable/GCC/ARM_CM4F/portmacro.h ****         (
 216:Drivers/FreeRTOS/portable/GCC/ARM_CM4F/portmacro.h ****             "	mrs %0, basepri											\n"\
 217:Drivers/FreeRTOS/portable/GCC/ARM_CM4F/portmacro.h ****             "	mov %1, %2												\n"\
 218:Drivers/FreeRTOS/portable/GCC/ARM_CM4F/portmacro.h ****             "	msr basepri, %1											\n"\
 219:Drivers/FreeRTOS/portable/GCC/ARM_CM4F/portmacro.h ****             "	isb														\n"\
 220:Drivers/FreeRTOS/portable/GCC/ARM_CM4F/portmacro.h ****             "	dsb														\n"\
 221:Drivers/FreeRTOS/portable/GCC/ARM_CM4F/portmacro.h ****             : "=r" ( ulOriginalBASEPRI ), "=r" ( ulNewBASEPRI ) : "i" ( configMAX_SYSCALL_INTERRUPT
 222:Drivers/FreeRTOS/portable/GCC/ARM_CM4F/portmacro.h ****         );
 223:Drivers/FreeRTOS/portable/GCC/ARM_CM4F/portmacro.h **** 
 224:Drivers/FreeRTOS/portable/GCC/ARM_CM4F/portmacro.h ****         /* This return will not be reached but is necessary to prevent compiler
 225:Drivers/FreeRTOS/portable/GCC/ARM_CM4F/portmacro.h ****          * warnings. */
 226:Drivers/FreeRTOS/portable/GCC/ARM_CM4F/portmacro.h ****         return ulOriginalBASEPRI;
 1154              		.loc 2 226 16
 1155 00a8 BB69     		ldr	r3, [r7, #24]
 1156              	.LBE115:
 1157              	.LBE114:
 705:./Drivers/FreeRTOS/stream_buffer.c ****         {
 706:./Drivers/FreeRTOS/stream_buffer.c ****             sbSEND_COMPLETE_FROM_ISR( pxStreamBuffer, pxHigherPriorityTaskWoken );
 1158              		.loc 1 706 13
 1159 00aa 7B62     		str	r3, [r7, #36]
 1160 00ac 3B6B     		ldr	r3, [r7, #48]
 1161 00ae 1B69     		ldr	r3, [r3, #16]
 1162 00b0 002B     		cmp	r3, #0
 1163 00b2 0DD0     		beq	.L69
 1164              		.loc 1 706 13 is_stmt 0 discriminator 1
 1165 00b4 3B6B     		ldr	r3, [r7, #48]
 1166 00b6 1869     		ldr	r0, [r3, #16]
 1167 00b8 3B68     		ldr	r3, [r7]
 1168 00ba 0193     		str	r3, [sp, #4]
 1169 00bc 0023     		movs	r3, #0
 1170 00be 0093     		str	r3, [sp]
 1171 00c0 0023     		movs	r3, #0
 1172 00c2 0022     		movs	r2, #0
 1173 00c4 0021     		movs	r1, #0
 1174 00c6 FFF7FEFF 		bl	xTaskGenericNotifyFromISR
 1175 00ca 3B6B     		ldr	r3, [r7, #48]
 1176 00cc 0022     		movs	r2, #0
 1177 00ce 1A61     		str	r2, [r3, #16]
 1178              	.L69:
ARM GAS  C:\Users\Benson\AppData\Local\Temp\ccHty0UJ.s 			page 38


 1179 00d0 7B6A     		ldr	r3, [r7, #36]
 1180 00d2 3B61     		str	r3, [r7, #16]
 1181              	.LBB116:
 1182              	.LBB117:
 227:Drivers/FreeRTOS/portable/GCC/ARM_CM4F/portmacro.h ****     }
 228:Drivers/FreeRTOS/portable/GCC/ARM_CM4F/portmacro.h **** /*-----------------------------------------------------------*/
 229:Drivers/FreeRTOS/portable/GCC/ARM_CM4F/portmacro.h **** 
 230:Drivers/FreeRTOS/portable/GCC/ARM_CM4F/portmacro.h ****     portFORCE_INLINE static void vPortSetBASEPRI( uint32_t ulNewMaskValue )
 231:Drivers/FreeRTOS/portable/GCC/ARM_CM4F/portmacro.h ****     {
 232:Drivers/FreeRTOS/portable/GCC/ARM_CM4F/portmacro.h ****         __asm volatile
 1183              		.loc 2 232 9 is_stmt 1 discriminator 3
 1184 00d4 3B69     		ldr	r3, [r7, #16]
 1185              		.syntax unified
 1186              	@ 232 "Drivers/FreeRTOS/portable/GCC/ARM_CM4F/portmacro.h" 1
 1187 00d6 83F31188 			msr basepri, r3	
 1188              	@ 0 "" 2
 233:Drivers/FreeRTOS/portable/GCC/ARM_CM4F/portmacro.h ****         (
 234:Drivers/FreeRTOS/portable/GCC/ARM_CM4F/portmacro.h ****             "	msr basepri, %0	"::"r" ( ulNewMaskValue ) : "memory"
 235:Drivers/FreeRTOS/portable/GCC/ARM_CM4F/portmacro.h ****         );
 236:Drivers/FreeRTOS/portable/GCC/ARM_CM4F/portmacro.h ****     }
 1189              		.loc 2 236 5 discriminator 3
 1190              		.thumb
 1191              		.syntax unified
 1192 00da 00BF     		nop
 1193              	.L67:
 1194              	.LBE117:
 1195              	.LBE116:
 1196              	.LBE113:
 707:./Drivers/FreeRTOS/stream_buffer.c ****         }
 708:./Drivers/FreeRTOS/stream_buffer.c ****         else
 709:./Drivers/FreeRTOS/stream_buffer.c ****         {
 710:./Drivers/FreeRTOS/stream_buffer.c ****             mtCOVERAGE_TEST_MARKER();
 711:./Drivers/FreeRTOS/stream_buffer.c ****         }
 712:./Drivers/FreeRTOS/stream_buffer.c ****     }
 713:./Drivers/FreeRTOS/stream_buffer.c ****     else
 714:./Drivers/FreeRTOS/stream_buffer.c ****     {
 715:./Drivers/FreeRTOS/stream_buffer.c ****         mtCOVERAGE_TEST_MARKER();
 716:./Drivers/FreeRTOS/stream_buffer.c ****     }
 717:./Drivers/FreeRTOS/stream_buffer.c **** 
 718:./Drivers/FreeRTOS/stream_buffer.c ****     traceSTREAM_BUFFER_SEND_FROM_ISR( xStreamBuffer, xReturn );
 719:./Drivers/FreeRTOS/stream_buffer.c **** 
 720:./Drivers/FreeRTOS/stream_buffer.c ****     return xReturn;
 1197              		.loc 1 720 12
 1198 00dc BB6A     		ldr	r3, [r7, #40]
 721:./Drivers/FreeRTOS/stream_buffer.c **** }
 1199              		.loc 1 721 1
 1200 00de 1846     		mov	r0, r3
 1201 00e0 3837     		adds	r7, r7, #56
 1202              	.LCFI40:
 1203              		.cfi_def_cfa_offset 8
 1204 00e2 BD46     		mov	sp, r7
 1205              	.LCFI41:
 1206              		.cfi_def_cfa_register 13
 1207              		@ sp needed
 1208 00e4 80BD     		pop	{r7, pc}
 1209              		.cfi_endproc
 1210              	.LFE12:
ARM GAS  C:\Users\Benson\AppData\Local\Temp\ccHty0UJ.s 			page 39


 1212              		.section	.text.prvWriteMessageToBuffer,"ax",%progbits
 1213              		.align	1
 1214              		.syntax unified
 1215              		.thumb
 1216              		.thumb_func
 1217              		.fpu fpv4-sp-d16
 1219              	prvWriteMessageToBuffer:
 1220              	.LFB13:
 722:./Drivers/FreeRTOS/stream_buffer.c **** /*-----------------------------------------------------------*/
 723:./Drivers/FreeRTOS/stream_buffer.c **** 
 724:./Drivers/FreeRTOS/stream_buffer.c **** static size_t prvWriteMessageToBuffer( StreamBuffer_t * const pxStreamBuffer,
 725:./Drivers/FreeRTOS/stream_buffer.c ****                                        const void * pvTxData,
 726:./Drivers/FreeRTOS/stream_buffer.c ****                                        size_t xDataLengthBytes,
 727:./Drivers/FreeRTOS/stream_buffer.c ****                                        size_t xSpace,
 728:./Drivers/FreeRTOS/stream_buffer.c ****                                        size_t xRequiredSpace )
 729:./Drivers/FreeRTOS/stream_buffer.c **** {
 1221              		.loc 1 729 1
 1222              		.cfi_startproc
 1223              		@ args = 4, pretend = 0, frame = 24
 1224              		@ frame_needed = 1, uses_anonymous_args = 0
 1225 0000 80B5     		push	{r7, lr}
 1226              	.LCFI42:
 1227              		.cfi_def_cfa_offset 8
 1228              		.cfi_offset 7, -8
 1229              		.cfi_offset 14, -4
 1230 0002 86B0     		sub	sp, sp, #24
 1231              	.LCFI43:
 1232              		.cfi_def_cfa_offset 32
 1233 0004 00AF     		add	r7, sp, #0
 1234              	.LCFI44:
 1235              		.cfi_def_cfa_register 7
 1236 0006 F860     		str	r0, [r7, #12]
 1237 0008 B960     		str	r1, [r7, #8]
 1238 000a 7A60     		str	r2, [r7, #4]
 1239 000c 3B60     		str	r3, [r7]
 730:./Drivers/FreeRTOS/stream_buffer.c ****     size_t xNextHead = pxStreamBuffer->xHead;
 1240              		.loc 1 730 12
 1241 000e FB68     		ldr	r3, [r7, #12]
 1242 0010 5B68     		ldr	r3, [r3, #4]
 1243 0012 7B61     		str	r3, [r7, #20]
 731:./Drivers/FreeRTOS/stream_buffer.c **** 
 732:./Drivers/FreeRTOS/stream_buffer.c ****     if( ( pxStreamBuffer->ucFlags & sbFLAGS_IS_MESSAGE_BUFFER ) != ( uint8_t ) 0 )
 1244              		.loc 1 732 25
 1245 0014 FB68     		ldr	r3, [r7, #12]
 1246 0016 1B7F     		ldrb	r3, [r3, #28]	@ zero_extendqisi2
 1247              		.loc 1 732 35
 1248 0018 03F00103 		and	r3, r3, #1
 1249              		.loc 1 732 7
 1250 001c 002B     		cmp	r3, #0
 1251 001e 0ED0     		beq	.L72
 733:./Drivers/FreeRTOS/stream_buffer.c ****     {
 734:./Drivers/FreeRTOS/stream_buffer.c ****         /* This is a message buffer, as opposed to a stream buffer. */
 735:./Drivers/FreeRTOS/stream_buffer.c **** 
 736:./Drivers/FreeRTOS/stream_buffer.c ****         if( xSpace >= xRequiredSpace )
 1252              		.loc 1 736 11
 1253 0020 3A68     		ldr	r2, [r7]
 1254 0022 3B6A     		ldr	r3, [r7, #32]
ARM GAS  C:\Users\Benson\AppData\Local\Temp\ccHty0UJ.s 			page 40


 1255 0024 9A42     		cmp	r2, r3
 1256 0026 07D3     		bcc	.L73
 737:./Drivers/FreeRTOS/stream_buffer.c ****         {
 738:./Drivers/FreeRTOS/stream_buffer.c ****             /* There is enough space to write both the message length and the message
 739:./Drivers/FreeRTOS/stream_buffer.c ****              * itself into the buffer.  Start by writing the length of the data, the data
 740:./Drivers/FreeRTOS/stream_buffer.c ****              * itself will be written later in this function. */
 741:./Drivers/FreeRTOS/stream_buffer.c ****             xNextHead = prvWriteBytesToBuffer( pxStreamBuffer, ( const uint8_t * ) &( xDataLengthBy
 1257              		.loc 1 741 25
 1258 0028 391D     		adds	r1, r7, #4
 1259 002a 7B69     		ldr	r3, [r7, #20]
 1260 002c 0422     		movs	r2, #4
 1261 002e F868     		ldr	r0, [r7, #12]
 1262 0030 FFF7FEFF 		bl	prvWriteBytesToBuffer
 1263 0034 7861     		str	r0, [r7, #20]
 1264 0036 08E0     		b	.L74
 1265              	.L73:
 742:./Drivers/FreeRTOS/stream_buffer.c ****         }
 743:./Drivers/FreeRTOS/stream_buffer.c ****         else
 744:./Drivers/FreeRTOS/stream_buffer.c ****         {
 745:./Drivers/FreeRTOS/stream_buffer.c ****             /* Not enough space, so do not write data to the buffer. */
 746:./Drivers/FreeRTOS/stream_buffer.c ****             xDataLengthBytes = 0;
 1266              		.loc 1 746 30
 1267 0038 0023     		movs	r3, #0
 1268 003a 7B60     		str	r3, [r7, #4]
 1269 003c 05E0     		b	.L74
 1270              	.L72:
 747:./Drivers/FreeRTOS/stream_buffer.c ****         }
 748:./Drivers/FreeRTOS/stream_buffer.c ****     }
 749:./Drivers/FreeRTOS/stream_buffer.c ****     else
 750:./Drivers/FreeRTOS/stream_buffer.c ****     {
 751:./Drivers/FreeRTOS/stream_buffer.c ****         /* This is a stream buffer, as opposed to a message buffer, so writing a
 752:./Drivers/FreeRTOS/stream_buffer.c ****          * stream of bytes rather than discrete messages.  Plan to write as many
 753:./Drivers/FreeRTOS/stream_buffer.c ****          * bytes as possible. */
 754:./Drivers/FreeRTOS/stream_buffer.c ****         xDataLengthBytes = configMIN( xDataLengthBytes, xSpace );
 1271              		.loc 1 754 28
 1272 003e 7A68     		ldr	r2, [r7, #4]
 1273 0040 3B68     		ldr	r3, [r7]
 1274 0042 9342     		cmp	r3, r2
 1275 0044 28BF     		it	cs
 1276 0046 1346     		movcs	r3, r2
 1277              		.loc 1 754 26
 1278 0048 7B60     		str	r3, [r7, #4]
 1279              	.L74:
 755:./Drivers/FreeRTOS/stream_buffer.c ****     }
 756:./Drivers/FreeRTOS/stream_buffer.c **** 
 757:./Drivers/FreeRTOS/stream_buffer.c ****     if( xDataLengthBytes != ( size_t ) 0 )
 1280              		.loc 1 757 26
 1281 004a 7B68     		ldr	r3, [r7, #4]
 1282              		.loc 1 757 7
 1283 004c 002B     		cmp	r3, #0
 1284 004e 08D0     		beq	.L75
 758:./Drivers/FreeRTOS/stream_buffer.c ****     {
 759:./Drivers/FreeRTOS/stream_buffer.c ****         /* Write the data to the buffer. */
 760:./Drivers/FreeRTOS/stream_buffer.c ****         pxStreamBuffer->xHead = prvWriteBytesToBuffer( pxStreamBuffer, ( const uint8_t * ) pvTxData
 1285              		.loc 1 760 33
 1286 0050 7A68     		ldr	r2, [r7, #4]
 1287 0052 7B69     		ldr	r3, [r7, #20]
ARM GAS  C:\Users\Benson\AppData\Local\Temp\ccHty0UJ.s 			page 41


 1288 0054 B968     		ldr	r1, [r7, #8]
 1289 0056 F868     		ldr	r0, [r7, #12]
 1290 0058 FFF7FEFF 		bl	prvWriteBytesToBuffer
 1291 005c 0246     		mov	r2, r0
 1292              		.loc 1 760 31
 1293 005e FB68     		ldr	r3, [r7, #12]
 1294 0060 5A60     		str	r2, [r3, #4]
 1295              	.L75:
 761:./Drivers/FreeRTOS/stream_buffer.c ****     }
 762:./Drivers/FreeRTOS/stream_buffer.c **** 
 763:./Drivers/FreeRTOS/stream_buffer.c ****     return xDataLengthBytes;
 1296              		.loc 1 763 12
 1297 0062 7B68     		ldr	r3, [r7, #4]
 764:./Drivers/FreeRTOS/stream_buffer.c **** }
 1298              		.loc 1 764 1
 1299 0064 1846     		mov	r0, r3
 1300 0066 1837     		adds	r7, r7, #24
 1301              	.LCFI45:
 1302              		.cfi_def_cfa_offset 8
 1303 0068 BD46     		mov	sp, r7
 1304              	.LCFI46:
 1305              		.cfi_def_cfa_register 13
 1306              		@ sp needed
 1307 006a 80BD     		pop	{r7, pc}
 1308              		.cfi_endproc
 1309              	.LFE13:
 1311              		.section	.text.xStreamBufferReceive,"ax",%progbits
 1312              		.align	1
 1313              		.global	xStreamBufferReceive
 1314              		.syntax unified
 1315              		.thumb
 1316              		.thumb_func
 1317              		.fpu fpv4-sp-d16
 1319              	xStreamBufferReceive:
 1320              	.LFB14:
 765:./Drivers/FreeRTOS/stream_buffer.c **** /*-----------------------------------------------------------*/
 766:./Drivers/FreeRTOS/stream_buffer.c **** 
 767:./Drivers/FreeRTOS/stream_buffer.c **** size_t xStreamBufferReceive( StreamBufferHandle_t xStreamBuffer,
 768:./Drivers/FreeRTOS/stream_buffer.c ****                              void * pvRxData,
 769:./Drivers/FreeRTOS/stream_buffer.c ****                              size_t xBufferLengthBytes,
 770:./Drivers/FreeRTOS/stream_buffer.c ****                              TickType_t xTicksToWait )
 771:./Drivers/FreeRTOS/stream_buffer.c **** {
 1321              		.loc 1 771 1
 1322              		.cfi_startproc
 1323              		@ args = 0, pretend = 0, frame = 48
 1324              		@ frame_needed = 1, uses_anonymous_args = 0
 1325 0000 80B5     		push	{r7, lr}
 1326              	.LCFI47:
 1327              		.cfi_def_cfa_offset 8
 1328              		.cfi_offset 7, -8
 1329              		.cfi_offset 14, -4
 1330 0002 8EB0     		sub	sp, sp, #56
 1331              	.LCFI48:
 1332              		.cfi_def_cfa_offset 64
 1333 0004 02AF     		add	r7, sp, #8
 1334              	.LCFI49:
 1335              		.cfi_def_cfa 7, 56
ARM GAS  C:\Users\Benson\AppData\Local\Temp\ccHty0UJ.s 			page 42


 1336 0006 F860     		str	r0, [r7, #12]
 1337 0008 B960     		str	r1, [r7, #8]
 1338 000a 7A60     		str	r2, [r7, #4]
 1339 000c 3B60     		str	r3, [r7]
 772:./Drivers/FreeRTOS/stream_buffer.c ****     StreamBuffer_t * const pxStreamBuffer = xStreamBuffer;
 1340              		.loc 1 772 28
 1341 000e FB68     		ldr	r3, [r7, #12]
 1342 0010 3B62     		str	r3, [r7, #32]
 773:./Drivers/FreeRTOS/stream_buffer.c ****     size_t xReceivedLength = 0, xBytesAvailable, xBytesToStoreMessageLength;
 1343              		.loc 1 773 12
 1344 0012 0023     		movs	r3, #0
 1345 0014 FB62     		str	r3, [r7, #44]
 774:./Drivers/FreeRTOS/stream_buffer.c **** 
 775:./Drivers/FreeRTOS/stream_buffer.c ****     configASSERT( pvRxData );
 1346              		.loc 1 775 5
 1347 0016 BB68     		ldr	r3, [r7, #8]
 1348 0018 002B     		cmp	r3, #0
 1349 001a 0AD1     		bne	.L78
 1350              	.LBB118:
 1351              	.LBB119:
 198:Drivers/FreeRTOS/portable/GCC/ARM_CM4F/portmacro.h ****         (
 1352              		.loc 2 198 9
 1353              		.syntax unified
 1354              	@ 198 "Drivers/FreeRTOS/portable/GCC/ARM_CM4F/portmacro.h" 1
 1355 001c 4FF05003 			mov r3, #80												
 1356 0020 83F31188 		msr basepri, r3											
 1357 0024 BFF36F8F 		isb														
 1358 0028 BFF34F8F 		dsb														
 1359              	
 1360              	@ 0 "" 2
 1361              		.thumb
 1362              		.syntax unified
 1363 002c FB61     		str	r3, [r7, #28]
 206:Drivers/FreeRTOS/portable/GCC/ARM_CM4F/portmacro.h **** 
 1364              		.loc 2 206 5
 1365 002e 00BF     		nop
 1366              	.L79:
 1367              	.LBE119:
 1368              	.LBE118:
 1369              		.loc 1 775 5 discriminator 1
 1370 0030 FEE7     		b	.L79
 1371              	.L78:
 776:./Drivers/FreeRTOS/stream_buffer.c ****     configASSERT( pxStreamBuffer );
 1372              		.loc 1 776 5
 1373 0032 3B6A     		ldr	r3, [r7, #32]
 1374 0034 002B     		cmp	r3, #0
 1375 0036 0AD1     		bne	.L80
 1376              	.LBB120:
 1377              	.LBB121:
 198:Drivers/FreeRTOS/portable/GCC/ARM_CM4F/portmacro.h ****         (
 1378              		.loc 2 198 9
 1379              		.syntax unified
 1380              	@ 198 "Drivers/FreeRTOS/portable/GCC/ARM_CM4F/portmacro.h" 1
 1381 0038 4FF05003 			mov r3, #80												
 1382 003c 83F31188 		msr basepri, r3											
 1383 0040 BFF36F8F 		isb														
 1384 0044 BFF34F8F 		dsb														
ARM GAS  C:\Users\Benson\AppData\Local\Temp\ccHty0UJ.s 			page 43


 1385              	
 1386              	@ 0 "" 2
 1387              		.thumb
 1388              		.syntax unified
 1389 0048 BB61     		str	r3, [r7, #24]
 206:Drivers/FreeRTOS/portable/GCC/ARM_CM4F/portmacro.h **** 
 1390              		.loc 2 206 5
 1391 004a 00BF     		nop
 1392              	.L81:
 1393              	.LBE121:
 1394              	.LBE120:
 1395              		.loc 1 776 5 discriminator 2
 1396 004c FEE7     		b	.L81
 1397              	.L80:
 777:./Drivers/FreeRTOS/stream_buffer.c **** 
 778:./Drivers/FreeRTOS/stream_buffer.c ****     /* This receive function is used by both message buffers, which store
 779:./Drivers/FreeRTOS/stream_buffer.c ****      * discrete messages, and stream buffers, which store a continuous stream of
 780:./Drivers/FreeRTOS/stream_buffer.c ****      * bytes.  Discrete messages include an additional
 781:./Drivers/FreeRTOS/stream_buffer.c ****      * sbBYTES_TO_STORE_MESSAGE_LENGTH bytes that hold the length of the
 782:./Drivers/FreeRTOS/stream_buffer.c ****      * message. */
 783:./Drivers/FreeRTOS/stream_buffer.c ****     if( ( pxStreamBuffer->ucFlags & sbFLAGS_IS_MESSAGE_BUFFER ) != ( uint8_t ) 0 )
 1398              		.loc 1 783 25
 1399 004e 3B6A     		ldr	r3, [r7, #32]
 1400 0050 1B7F     		ldrb	r3, [r3, #28]	@ zero_extendqisi2
 1401              		.loc 1 783 35
 1402 0052 03F00103 		and	r3, r3, #1
 1403              		.loc 1 783 7
 1404 0056 002B     		cmp	r3, #0
 1405 0058 02D0     		beq	.L82
 784:./Drivers/FreeRTOS/stream_buffer.c ****     {
 785:./Drivers/FreeRTOS/stream_buffer.c ****         xBytesToStoreMessageLength = sbBYTES_TO_STORE_MESSAGE_LENGTH;
 1406              		.loc 1 785 36
 1407 005a 0423     		movs	r3, #4
 1408 005c 7B62     		str	r3, [r7, #36]
 1409 005e 01E0     		b	.L83
 1410              	.L82:
 786:./Drivers/FreeRTOS/stream_buffer.c ****     }
 787:./Drivers/FreeRTOS/stream_buffer.c ****     else
 788:./Drivers/FreeRTOS/stream_buffer.c ****     {
 789:./Drivers/FreeRTOS/stream_buffer.c ****         xBytesToStoreMessageLength = 0;
 1411              		.loc 1 789 36
 1412 0060 0023     		movs	r3, #0
 1413 0062 7B62     		str	r3, [r7, #36]
 1414              	.L83:
 790:./Drivers/FreeRTOS/stream_buffer.c ****     }
 791:./Drivers/FreeRTOS/stream_buffer.c **** 
 792:./Drivers/FreeRTOS/stream_buffer.c ****     if( xTicksToWait != ( TickType_t ) 0 )
 1415              		.loc 1 792 7
 1416 0064 3B68     		ldr	r3, [r7]
 1417 0066 002B     		cmp	r3, #0
 1418 0068 37D0     		beq	.L84
 793:./Drivers/FreeRTOS/stream_buffer.c ****     {
 794:./Drivers/FreeRTOS/stream_buffer.c ****         /* Checking if there is data and clearing the notification state must be
 795:./Drivers/FreeRTOS/stream_buffer.c ****          * performed atomically. */
 796:./Drivers/FreeRTOS/stream_buffer.c ****         taskENTER_CRITICAL();
 1419              		.loc 1 796 9
 1420 006a FFF7FEFF 		bl	vPortEnterCritical
ARM GAS  C:\Users\Benson\AppData\Local\Temp\ccHty0UJ.s 			page 44


 797:./Drivers/FreeRTOS/stream_buffer.c ****         {
 798:./Drivers/FreeRTOS/stream_buffer.c ****             xBytesAvailable = prvBytesInBuffer( pxStreamBuffer );
 1421              		.loc 1 798 31
 1422 006e 386A     		ldr	r0, [r7, #32]
 1423 0070 FFF7FEFF 		bl	prvBytesInBuffer
 1424 0074 B862     		str	r0, [r7, #40]
 799:./Drivers/FreeRTOS/stream_buffer.c **** 
 800:./Drivers/FreeRTOS/stream_buffer.c ****             /* If this function was invoked by a message buffer read then
 801:./Drivers/FreeRTOS/stream_buffer.c ****              * xBytesToStoreMessageLength holds the number of bytes used to hold
 802:./Drivers/FreeRTOS/stream_buffer.c ****              * the length of the next discrete message.  If this function was
 803:./Drivers/FreeRTOS/stream_buffer.c ****              * invoked by a stream buffer read then xBytesToStoreMessageLength will
 804:./Drivers/FreeRTOS/stream_buffer.c ****              * be 0. */
 805:./Drivers/FreeRTOS/stream_buffer.c ****             if( xBytesAvailable <= xBytesToStoreMessageLength )
 1425              		.loc 1 805 15
 1426 0076 BA6A     		ldr	r2, [r7, #40]
 1427 0078 7B6A     		ldr	r3, [r7, #36]
 1428 007a 9A42     		cmp	r2, r3
 1429 007c 17D8     		bhi	.L85
 806:./Drivers/FreeRTOS/stream_buffer.c ****             {
 807:./Drivers/FreeRTOS/stream_buffer.c ****                 /* Clear notification state as going to wait for data. */
 808:./Drivers/FreeRTOS/stream_buffer.c ****                 ( void ) xTaskNotifyStateClear( NULL );
 1430              		.loc 1 808 26
 1431 007e 0021     		movs	r1, #0
 1432 0080 0020     		movs	r0, #0
 1433 0082 FFF7FEFF 		bl	xTaskGenericNotifyStateClear
 809:./Drivers/FreeRTOS/stream_buffer.c **** 
 810:./Drivers/FreeRTOS/stream_buffer.c ****                 /* Should only be one reader. */
 811:./Drivers/FreeRTOS/stream_buffer.c ****                 configASSERT( pxStreamBuffer->xTaskWaitingToReceive == NULL );
 1434              		.loc 1 811 17
 1435 0086 3B6A     		ldr	r3, [r7, #32]
 1436 0088 1B69     		ldr	r3, [r3, #16]
 1437 008a 002B     		cmp	r3, #0
 1438 008c 0AD0     		beq	.L86
 1439              	.LBB122:
 1440              	.LBB123:
 198:Drivers/FreeRTOS/portable/GCC/ARM_CM4F/portmacro.h ****         (
 1441              		.loc 2 198 9
 1442              		.syntax unified
 1443              	@ 198 "Drivers/FreeRTOS/portable/GCC/ARM_CM4F/portmacro.h" 1
 1444 008e 4FF05003 			mov r3, #80												
 1445 0092 83F31188 		msr basepri, r3											
 1446 0096 BFF36F8F 		isb														
 1447 009a BFF34F8F 		dsb														
 1448              	
 1449              	@ 0 "" 2
 1450              		.thumb
 1451              		.syntax unified
 1452 009e 7B61     		str	r3, [r7, #20]
 206:Drivers/FreeRTOS/portable/GCC/ARM_CM4F/portmacro.h **** 
 1453              		.loc 2 206 5
 1454 00a0 00BF     		nop
 1455              	.L87:
 1456              	.LBE123:
 1457              	.LBE122:
 1458              		.loc 1 811 17 discriminator 3
 1459 00a2 FEE7     		b	.L87
 1460              	.L86:
ARM GAS  C:\Users\Benson\AppData\Local\Temp\ccHty0UJ.s 			page 45


 812:./Drivers/FreeRTOS/stream_buffer.c ****                 pxStreamBuffer->xTaskWaitingToReceive = xTaskGetCurrentTaskHandle();
 1461              		.loc 1 812 57
 1462 00a4 FFF7FEFF 		bl	xTaskGetCurrentTaskHandle
 1463 00a8 0246     		mov	r2, r0
 1464              		.loc 1 812 55
 1465 00aa 3B6A     		ldr	r3, [r7, #32]
 1466 00ac 1A61     		str	r2, [r3, #16]
 1467              	.L85:
 813:./Drivers/FreeRTOS/stream_buffer.c ****             }
 814:./Drivers/FreeRTOS/stream_buffer.c ****             else
 815:./Drivers/FreeRTOS/stream_buffer.c ****             {
 816:./Drivers/FreeRTOS/stream_buffer.c ****                 mtCOVERAGE_TEST_MARKER();
 817:./Drivers/FreeRTOS/stream_buffer.c ****             }
 818:./Drivers/FreeRTOS/stream_buffer.c ****         }
 819:./Drivers/FreeRTOS/stream_buffer.c ****         taskEXIT_CRITICAL();
 1468              		.loc 1 819 9
 1469 00ae FFF7FEFF 		bl	vPortExitCritical
 820:./Drivers/FreeRTOS/stream_buffer.c **** 
 821:./Drivers/FreeRTOS/stream_buffer.c ****         if( xBytesAvailable <= xBytesToStoreMessageLength )
 1470              		.loc 1 821 11
 1471 00b2 BA6A     		ldr	r2, [r7, #40]
 1472 00b4 7B6A     		ldr	r3, [r7, #36]
 1473 00b6 9A42     		cmp	r2, r3
 1474 00b8 13D8     		bhi	.L88
 822:./Drivers/FreeRTOS/stream_buffer.c ****         {
 823:./Drivers/FreeRTOS/stream_buffer.c ****             /* Wait for data to be available. */
 824:./Drivers/FreeRTOS/stream_buffer.c ****             traceBLOCKING_ON_STREAM_BUFFER_RECEIVE( xStreamBuffer );
 825:./Drivers/FreeRTOS/stream_buffer.c ****             ( void ) xTaskNotifyWait( ( uint32_t ) 0, ( uint32_t ) 0, NULL, xTicksToWait );
 1475              		.loc 1 825 22
 1476 00ba 3B68     		ldr	r3, [r7]
 1477 00bc 0093     		str	r3, [sp]
 1478 00be 0023     		movs	r3, #0
 1479 00c0 0022     		movs	r2, #0
 1480 00c2 0021     		movs	r1, #0
 1481 00c4 0020     		movs	r0, #0
 1482 00c6 FFF7FEFF 		bl	xTaskGenericNotifyWait
 826:./Drivers/FreeRTOS/stream_buffer.c ****             pxStreamBuffer->xTaskWaitingToReceive = NULL;
 1483              		.loc 1 826 51
 1484 00ca 3B6A     		ldr	r3, [r7, #32]
 1485 00cc 0022     		movs	r2, #0
 1486 00ce 1A61     		str	r2, [r3, #16]
 827:./Drivers/FreeRTOS/stream_buffer.c **** 
 828:./Drivers/FreeRTOS/stream_buffer.c ****             /* Recheck the data available after blocking. */
 829:./Drivers/FreeRTOS/stream_buffer.c ****             xBytesAvailable = prvBytesInBuffer( pxStreamBuffer );
 1487              		.loc 1 829 31
 1488 00d0 386A     		ldr	r0, [r7, #32]
 1489 00d2 FFF7FEFF 		bl	prvBytesInBuffer
 1490 00d6 B862     		str	r0, [r7, #40]
 1491 00d8 03E0     		b	.L88
 1492              	.L84:
 830:./Drivers/FreeRTOS/stream_buffer.c ****         }
 831:./Drivers/FreeRTOS/stream_buffer.c ****         else
 832:./Drivers/FreeRTOS/stream_buffer.c ****         {
 833:./Drivers/FreeRTOS/stream_buffer.c ****             mtCOVERAGE_TEST_MARKER();
 834:./Drivers/FreeRTOS/stream_buffer.c ****         }
 835:./Drivers/FreeRTOS/stream_buffer.c ****     }
 836:./Drivers/FreeRTOS/stream_buffer.c ****     else
ARM GAS  C:\Users\Benson\AppData\Local\Temp\ccHty0UJ.s 			page 46


 837:./Drivers/FreeRTOS/stream_buffer.c ****     {
 838:./Drivers/FreeRTOS/stream_buffer.c ****         xBytesAvailable = prvBytesInBuffer( pxStreamBuffer );
 1493              		.loc 1 838 27
 1494 00da 386A     		ldr	r0, [r7, #32]
 1495 00dc FFF7FEFF 		bl	prvBytesInBuffer
 1496 00e0 B862     		str	r0, [r7, #40]
 1497              	.L88:
 839:./Drivers/FreeRTOS/stream_buffer.c ****     }
 840:./Drivers/FreeRTOS/stream_buffer.c **** 
 841:./Drivers/FreeRTOS/stream_buffer.c ****     /* Whether receiving a discrete message (where xBytesToStoreMessageLength
 842:./Drivers/FreeRTOS/stream_buffer.c ****      * holds the number of bytes used to store the message length) or a stream of
 843:./Drivers/FreeRTOS/stream_buffer.c ****      * bytes (where xBytesToStoreMessageLength is zero), the number of bytes
 844:./Drivers/FreeRTOS/stream_buffer.c ****      * available must be greater than xBytesToStoreMessageLength to be able to
 845:./Drivers/FreeRTOS/stream_buffer.c ****      * read bytes from the buffer. */
 846:./Drivers/FreeRTOS/stream_buffer.c ****     if( xBytesAvailable > xBytesToStoreMessageLength )
 1498              		.loc 1 846 7
 1499 00e2 BA6A     		ldr	r2, [r7, #40]
 1500 00e4 7B6A     		ldr	r3, [r7, #36]
 1501 00e6 9A42     		cmp	r2, r3
 1502 00e8 1DD9     		bls	.L89
 847:./Drivers/FreeRTOS/stream_buffer.c ****     {
 848:./Drivers/FreeRTOS/stream_buffer.c ****         xReceivedLength = prvReadMessageFromBuffer( pxStreamBuffer, pvRxData, xBufferLengthBytes, x
 1503              		.loc 1 848 27
 1504 00ea BB6A     		ldr	r3, [r7, #40]
 1505 00ec 7A68     		ldr	r2, [r7, #4]
 1506 00ee B968     		ldr	r1, [r7, #8]
 1507 00f0 386A     		ldr	r0, [r7, #32]
 1508 00f2 FFF7FEFF 		bl	prvReadMessageFromBuffer
 1509 00f6 F862     		str	r0, [r7, #44]
 849:./Drivers/FreeRTOS/stream_buffer.c **** 
 850:./Drivers/FreeRTOS/stream_buffer.c ****         /* Was a task waiting for space in the buffer? */
 851:./Drivers/FreeRTOS/stream_buffer.c ****         if( xReceivedLength != ( size_t ) 0 )
 1510              		.loc 1 851 11
 1511 00f8 FB6A     		ldr	r3, [r7, #44]
 1512 00fa 002B     		cmp	r3, #0
 1513 00fc 13D0     		beq	.L89
 852:./Drivers/FreeRTOS/stream_buffer.c ****         {
 853:./Drivers/FreeRTOS/stream_buffer.c ****             traceSTREAM_BUFFER_RECEIVE( xStreamBuffer, xReceivedLength );
 854:./Drivers/FreeRTOS/stream_buffer.c ****             sbRECEIVE_COMPLETED( pxStreamBuffer );
 1514              		.loc 1 854 13
 1515 00fe FFF7FEFF 		bl	vTaskSuspendAll
 1516 0102 3B6A     		ldr	r3, [r7, #32]
 1517 0104 5B69     		ldr	r3, [r3, #20]
 1518 0106 002B     		cmp	r3, #0
 1519 0108 0BD0     		beq	.L90
 1520              		.loc 1 854 13 is_stmt 0 discriminator 1
 1521 010a 3B6A     		ldr	r3, [r7, #32]
 1522 010c 5869     		ldr	r0, [r3, #20]
 1523 010e 0023     		movs	r3, #0
 1524 0110 0093     		str	r3, [sp]
 1525 0112 0023     		movs	r3, #0
 1526 0114 0022     		movs	r2, #0
 1527 0116 0021     		movs	r1, #0
 1528 0118 FFF7FEFF 		bl	xTaskGenericNotify
 1529 011c 3B6A     		ldr	r3, [r7, #32]
 1530 011e 0022     		movs	r2, #0
 1531 0120 5A61     		str	r2, [r3, #20]
ARM GAS  C:\Users\Benson\AppData\Local\Temp\ccHty0UJ.s 			page 47


 1532              	.L90:
 1533              		.loc 1 854 13 discriminator 3
 1534 0122 FFF7FEFF 		bl	xTaskResumeAll
 1535              	.L89:
 855:./Drivers/FreeRTOS/stream_buffer.c ****         }
 856:./Drivers/FreeRTOS/stream_buffer.c ****         else
 857:./Drivers/FreeRTOS/stream_buffer.c ****         {
 858:./Drivers/FreeRTOS/stream_buffer.c ****             mtCOVERAGE_TEST_MARKER();
 859:./Drivers/FreeRTOS/stream_buffer.c ****         }
 860:./Drivers/FreeRTOS/stream_buffer.c ****     }
 861:./Drivers/FreeRTOS/stream_buffer.c ****     else
 862:./Drivers/FreeRTOS/stream_buffer.c ****     {
 863:./Drivers/FreeRTOS/stream_buffer.c ****         traceSTREAM_BUFFER_RECEIVE_FAILED( xStreamBuffer );
 864:./Drivers/FreeRTOS/stream_buffer.c ****         mtCOVERAGE_TEST_MARKER();
 865:./Drivers/FreeRTOS/stream_buffer.c ****     }
 866:./Drivers/FreeRTOS/stream_buffer.c **** 
 867:./Drivers/FreeRTOS/stream_buffer.c ****     return xReceivedLength;
 1536              		.loc 1 867 12 is_stmt 1
 1537 0126 FB6A     		ldr	r3, [r7, #44]
 868:./Drivers/FreeRTOS/stream_buffer.c **** }
 1538              		.loc 1 868 1
 1539 0128 1846     		mov	r0, r3
 1540 012a 3037     		adds	r7, r7, #48
 1541              	.LCFI50:
 1542              		.cfi_def_cfa_offset 8
 1543 012c BD46     		mov	sp, r7
 1544              	.LCFI51:
 1545              		.cfi_def_cfa_register 13
 1546              		@ sp needed
 1547 012e 80BD     		pop	{r7, pc}
 1548              		.cfi_endproc
 1549              	.LFE14:
 1551              		.section	.text.xStreamBufferNextMessageLengthBytes,"ax",%progbits
 1552              		.align	1
 1553              		.global	xStreamBufferNextMessageLengthBytes
 1554              		.syntax unified
 1555              		.thumb
 1556              		.thumb_func
 1557              		.fpu fpv4-sp-d16
 1559              	xStreamBufferNextMessageLengthBytes:
 1560              	.LFB15:
 869:./Drivers/FreeRTOS/stream_buffer.c **** /*-----------------------------------------------------------*/
 870:./Drivers/FreeRTOS/stream_buffer.c **** 
 871:./Drivers/FreeRTOS/stream_buffer.c **** size_t xStreamBufferNextMessageLengthBytes( StreamBufferHandle_t xStreamBuffer )
 872:./Drivers/FreeRTOS/stream_buffer.c **** {
 1561              		.loc 1 872 1
 1562              		.cfi_startproc
 1563              		@ args = 0, pretend = 0, frame = 32
 1564              		@ frame_needed = 1, uses_anonymous_args = 0
 1565 0000 80B5     		push	{r7, lr}
 1566              	.LCFI52:
 1567              		.cfi_def_cfa_offset 8
 1568              		.cfi_offset 7, -8
 1569              		.cfi_offset 14, -4
 1570 0002 88B0     		sub	sp, sp, #32
 1571              	.LCFI53:
 1572              		.cfi_def_cfa_offset 40
ARM GAS  C:\Users\Benson\AppData\Local\Temp\ccHty0UJ.s 			page 48


 1573 0004 00AF     		add	r7, sp, #0
 1574              	.LCFI54:
 1575              		.cfi_def_cfa_register 7
 1576 0006 7860     		str	r0, [r7, #4]
 873:./Drivers/FreeRTOS/stream_buffer.c ****     StreamBuffer_t * const pxStreamBuffer = xStreamBuffer;
 1577              		.loc 1 873 28
 1578 0008 7B68     		ldr	r3, [r7, #4]
 1579 000a BB61     		str	r3, [r7, #24]
 874:./Drivers/FreeRTOS/stream_buffer.c ****     size_t xReturn, xBytesAvailable;
 875:./Drivers/FreeRTOS/stream_buffer.c ****     configMESSAGE_BUFFER_LENGTH_TYPE xTempReturn;
 876:./Drivers/FreeRTOS/stream_buffer.c **** 
 877:./Drivers/FreeRTOS/stream_buffer.c ****     configASSERT( pxStreamBuffer );
 1580              		.loc 1 877 5
 1581 000c BB69     		ldr	r3, [r7, #24]
 1582 000e 002B     		cmp	r3, #0
 1583 0010 0AD1     		bne	.L93
 1584              	.LBB124:
 1585              	.LBB125:
 198:Drivers/FreeRTOS/portable/GCC/ARM_CM4F/portmacro.h ****         (
 1586              		.loc 2 198 9
 1587              		.syntax unified
 1588              	@ 198 "Drivers/FreeRTOS/portable/GCC/ARM_CM4F/portmacro.h" 1
 1589 0012 4FF05003 			mov r3, #80												
 1590 0016 83F31188 		msr basepri, r3											
 1591 001a BFF36F8F 		isb														
 1592 001e BFF34F8F 		dsb														
 1593              	
 1594              	@ 0 "" 2
 1595              		.thumb
 1596              		.syntax unified
 1597 0022 3B61     		str	r3, [r7, #16]
 206:Drivers/FreeRTOS/portable/GCC/ARM_CM4F/portmacro.h **** 
 1598              		.loc 2 206 5
 1599 0024 00BF     		nop
 1600              	.L94:
 1601              	.LBE125:
 1602              	.LBE124:
 1603              		.loc 1 877 5 discriminator 1
 1604 0026 FEE7     		b	.L94
 1605              	.L93:
 878:./Drivers/FreeRTOS/stream_buffer.c **** 
 879:./Drivers/FreeRTOS/stream_buffer.c ****     /* Ensure the stream buffer is being used as a message buffer. */
 880:./Drivers/FreeRTOS/stream_buffer.c ****     if( ( pxStreamBuffer->ucFlags & sbFLAGS_IS_MESSAGE_BUFFER ) != ( uint8_t ) 0 )
 1606              		.loc 1 880 25
 1607 0028 BB69     		ldr	r3, [r7, #24]
 1608 002a 1B7F     		ldrb	r3, [r3, #28]	@ zero_extendqisi2
 1609              		.loc 1 880 35
 1610 002c 03F00103 		and	r3, r3, #1
 1611              		.loc 1 880 7
 1612 0030 002B     		cmp	r3, #0
 1613 0032 22D0     		beq	.L95
 881:./Drivers/FreeRTOS/stream_buffer.c ****     {
 882:./Drivers/FreeRTOS/stream_buffer.c ****         xBytesAvailable = prvBytesInBuffer( pxStreamBuffer );
 1614              		.loc 1 882 27
 1615 0034 B869     		ldr	r0, [r7, #24]
 1616 0036 FFF7FEFF 		bl	prvBytesInBuffer
 1617 003a 7861     		str	r0, [r7, #20]
ARM GAS  C:\Users\Benson\AppData\Local\Temp\ccHty0UJ.s 			page 49


 883:./Drivers/FreeRTOS/stream_buffer.c **** 
 884:./Drivers/FreeRTOS/stream_buffer.c ****         if( xBytesAvailable > sbBYTES_TO_STORE_MESSAGE_LENGTH )
 1618              		.loc 1 884 11
 1619 003c 7B69     		ldr	r3, [r7, #20]
 1620 003e 042B     		cmp	r3, #4
 1621 0040 0AD9     		bls	.L96
 885:./Drivers/FreeRTOS/stream_buffer.c ****         {
 886:./Drivers/FreeRTOS/stream_buffer.c ****             /* The number of bytes available is greater than the number of bytes
 887:./Drivers/FreeRTOS/stream_buffer.c ****              * required to hold the length of the next message, so another message
 888:./Drivers/FreeRTOS/stream_buffer.c ****              * is available. */
 889:./Drivers/FreeRTOS/stream_buffer.c ****             ( void ) prvReadBytesFromBuffer( pxStreamBuffer, ( uint8_t * ) &xTempReturn, sbBYTES_TO
 1622              		.loc 1 889 22
 1623 0042 BB69     		ldr	r3, [r7, #24]
 1624 0044 1B68     		ldr	r3, [r3]
 1625 0046 07F10801 		add	r1, r7, #8
 1626 004a 0422     		movs	r2, #4
 1627 004c B869     		ldr	r0, [r7, #24]
 1628 004e FFF7FEFF 		bl	prvReadBytesFromBuffer
 890:./Drivers/FreeRTOS/stream_buffer.c ****             xReturn = ( size_t ) xTempReturn;
 1629              		.loc 1 890 21
 1630 0052 BB68     		ldr	r3, [r7, #8]
 1631 0054 FB61     		str	r3, [r7, #28]
 1632 0056 12E0     		b	.L97
 1633              	.L96:
 891:./Drivers/FreeRTOS/stream_buffer.c ****         }
 892:./Drivers/FreeRTOS/stream_buffer.c ****         else
 893:./Drivers/FreeRTOS/stream_buffer.c ****         {
 894:./Drivers/FreeRTOS/stream_buffer.c ****             /* The minimum amount of bytes in a message buffer is
 895:./Drivers/FreeRTOS/stream_buffer.c ****              * ( sbBYTES_TO_STORE_MESSAGE_LENGTH + 1 ), so if xBytesAvailable is
 896:./Drivers/FreeRTOS/stream_buffer.c ****              * less than sbBYTES_TO_STORE_MESSAGE_LENGTH the only other valid
 897:./Drivers/FreeRTOS/stream_buffer.c ****              * value is 0. */
 898:./Drivers/FreeRTOS/stream_buffer.c ****             configASSERT( xBytesAvailable == 0 );
 1634              		.loc 1 898 13
 1635 0058 7B69     		ldr	r3, [r7, #20]
 1636 005a 002B     		cmp	r3, #0
 1637 005c 0AD0     		beq	.L98
 1638              	.LBB126:
 1639              	.LBB127:
 198:Drivers/FreeRTOS/portable/GCC/ARM_CM4F/portmacro.h ****         (
 1640              		.loc 2 198 9
 1641              		.syntax unified
 1642              	@ 198 "Drivers/FreeRTOS/portable/GCC/ARM_CM4F/portmacro.h" 1
 1643 005e 4FF05003 			mov r3, #80												
 1644 0062 83F31188 		msr basepri, r3											
 1645 0066 BFF36F8F 		isb														
 1646 006a BFF34F8F 		dsb														
 1647              	
 1648              	@ 0 "" 2
 1649              		.thumb
 1650              		.syntax unified
 1651 006e FB60     		str	r3, [r7, #12]
 206:Drivers/FreeRTOS/portable/GCC/ARM_CM4F/portmacro.h **** 
 1652              		.loc 2 206 5
 1653 0070 00BF     		nop
 1654              	.L99:
 1655              	.LBE127:
 1656              	.LBE126:
ARM GAS  C:\Users\Benson\AppData\Local\Temp\ccHty0UJ.s 			page 50


 1657              		.loc 1 898 13 discriminator 2
 1658 0072 FEE7     		b	.L99
 1659              	.L98:
 899:./Drivers/FreeRTOS/stream_buffer.c ****             xReturn = 0;
 1660              		.loc 1 899 21
 1661 0074 0023     		movs	r3, #0
 1662 0076 FB61     		str	r3, [r7, #28]
 1663 0078 01E0     		b	.L97
 1664              	.L95:
 900:./Drivers/FreeRTOS/stream_buffer.c ****         }
 901:./Drivers/FreeRTOS/stream_buffer.c ****     }
 902:./Drivers/FreeRTOS/stream_buffer.c ****     else
 903:./Drivers/FreeRTOS/stream_buffer.c ****     {
 904:./Drivers/FreeRTOS/stream_buffer.c ****         xReturn = 0;
 1665              		.loc 1 904 17
 1666 007a 0023     		movs	r3, #0
 1667 007c FB61     		str	r3, [r7, #28]
 1668              	.L97:
 905:./Drivers/FreeRTOS/stream_buffer.c ****     }
 906:./Drivers/FreeRTOS/stream_buffer.c **** 
 907:./Drivers/FreeRTOS/stream_buffer.c ****     return xReturn;
 1669              		.loc 1 907 12
 1670 007e FB69     		ldr	r3, [r7, #28]
 908:./Drivers/FreeRTOS/stream_buffer.c **** }
 1671              		.loc 1 908 1
 1672 0080 1846     		mov	r0, r3
 1673 0082 2037     		adds	r7, r7, #32
 1674              	.LCFI55:
 1675              		.cfi_def_cfa_offset 8
 1676 0084 BD46     		mov	sp, r7
 1677              	.LCFI56:
 1678              		.cfi_def_cfa_register 13
 1679              		@ sp needed
 1680 0086 80BD     		pop	{r7, pc}
 1681              		.cfi_endproc
 1682              	.LFE15:
 1684              		.section	.text.xStreamBufferReceiveFromISR,"ax",%progbits
 1685              		.align	1
 1686              		.global	xStreamBufferReceiveFromISR
 1687              		.syntax unified
 1688              		.thumb
 1689              		.thumb_func
 1690              		.fpu fpv4-sp-d16
 1692              	xStreamBufferReceiveFromISR:
 1693              	.LFB16:
 909:./Drivers/FreeRTOS/stream_buffer.c **** /*-----------------------------------------------------------*/
 910:./Drivers/FreeRTOS/stream_buffer.c **** 
 911:./Drivers/FreeRTOS/stream_buffer.c **** size_t xStreamBufferReceiveFromISR( StreamBufferHandle_t xStreamBuffer,
 912:./Drivers/FreeRTOS/stream_buffer.c ****                                     void * pvRxData,
 913:./Drivers/FreeRTOS/stream_buffer.c ****                                     size_t xBufferLengthBytes,
 914:./Drivers/FreeRTOS/stream_buffer.c ****                                     BaseType_t * const pxHigherPriorityTaskWoken )
 915:./Drivers/FreeRTOS/stream_buffer.c **** {
 1694              		.loc 1 915 1
 1695              		.cfi_startproc
 1696              		@ args = 0, pretend = 0, frame = 56
 1697              		@ frame_needed = 1, uses_anonymous_args = 0
 1698 0000 80B5     		push	{r7, lr}
ARM GAS  C:\Users\Benson\AppData\Local\Temp\ccHty0UJ.s 			page 51


 1699              	.LCFI57:
 1700              		.cfi_def_cfa_offset 8
 1701              		.cfi_offset 7, -8
 1702              		.cfi_offset 14, -4
 1703 0002 90B0     		sub	sp, sp, #64
 1704              	.LCFI58:
 1705              		.cfi_def_cfa_offset 72
 1706 0004 02AF     		add	r7, sp, #8
 1707              	.LCFI59:
 1708              		.cfi_def_cfa 7, 64
 1709 0006 F860     		str	r0, [r7, #12]
 1710 0008 B960     		str	r1, [r7, #8]
 1711 000a 7A60     		str	r2, [r7, #4]
 1712 000c 3B60     		str	r3, [r7]
 916:./Drivers/FreeRTOS/stream_buffer.c ****     StreamBuffer_t * const pxStreamBuffer = xStreamBuffer;
 1713              		.loc 1 916 28
 1714 000e FB68     		ldr	r3, [r7, #12]
 1715 0010 FB62     		str	r3, [r7, #44]
 917:./Drivers/FreeRTOS/stream_buffer.c ****     size_t xReceivedLength = 0, xBytesAvailable, xBytesToStoreMessageLength;
 1716              		.loc 1 917 12
 1717 0012 0023     		movs	r3, #0
 1718 0014 7B63     		str	r3, [r7, #52]
 918:./Drivers/FreeRTOS/stream_buffer.c **** 
 919:./Drivers/FreeRTOS/stream_buffer.c ****     configASSERT( pvRxData );
 1719              		.loc 1 919 5
 1720 0016 BB68     		ldr	r3, [r7, #8]
 1721 0018 002B     		cmp	r3, #0
 1722 001a 0AD1     		bne	.L102
 1723              	.LBB128:
 1724              	.LBB129:
 198:Drivers/FreeRTOS/portable/GCC/ARM_CM4F/portmacro.h ****         (
 1725              		.loc 2 198 9
 1726              		.syntax unified
 1727              	@ 198 "Drivers/FreeRTOS/portable/GCC/ARM_CM4F/portmacro.h" 1
 1728 001c 4FF05003 			mov r3, #80												
 1729 0020 83F31188 		msr basepri, r3											
 1730 0024 BFF36F8F 		isb														
 1731 0028 BFF34F8F 		dsb														
 1732              	
 1733              	@ 0 "" 2
 1734              		.thumb
 1735              		.syntax unified
 1736 002c 3B62     		str	r3, [r7, #32]
 206:Drivers/FreeRTOS/portable/GCC/ARM_CM4F/portmacro.h **** 
 1737              		.loc 2 206 5
 1738 002e 00BF     		nop
 1739              	.L103:
 1740              	.LBE129:
 1741              	.LBE128:
 1742              		.loc 1 919 5 discriminator 1
 1743 0030 FEE7     		b	.L103
 1744              	.L102:
 920:./Drivers/FreeRTOS/stream_buffer.c ****     configASSERT( pxStreamBuffer );
 1745              		.loc 1 920 5
 1746 0032 FB6A     		ldr	r3, [r7, #44]
 1747 0034 002B     		cmp	r3, #0
 1748 0036 0AD1     		bne	.L104
ARM GAS  C:\Users\Benson\AppData\Local\Temp\ccHty0UJ.s 			page 52


 1749              	.LBB130:
 1750              	.LBB131:
 198:Drivers/FreeRTOS/portable/GCC/ARM_CM4F/portmacro.h ****         (
 1751              		.loc 2 198 9
 1752              		.syntax unified
 1753              	@ 198 "Drivers/FreeRTOS/portable/GCC/ARM_CM4F/portmacro.h" 1
 1754 0038 4FF05003 			mov r3, #80												
 1755 003c 83F31188 		msr basepri, r3											
 1756 0040 BFF36F8F 		isb														
 1757 0044 BFF34F8F 		dsb														
 1758              	
 1759              	@ 0 "" 2
 1760              		.thumb
 1761              		.syntax unified
 1762 0048 FB61     		str	r3, [r7, #28]
 206:Drivers/FreeRTOS/portable/GCC/ARM_CM4F/portmacro.h **** 
 1763              		.loc 2 206 5
 1764 004a 00BF     		nop
 1765              	.L105:
 1766              	.LBE131:
 1767              	.LBE130:
 1768              		.loc 1 920 5 discriminator 2
 1769 004c FEE7     		b	.L105
 1770              	.L104:
 921:./Drivers/FreeRTOS/stream_buffer.c **** 
 922:./Drivers/FreeRTOS/stream_buffer.c ****     /* This receive function is used by both message buffers, which store
 923:./Drivers/FreeRTOS/stream_buffer.c ****      * discrete messages, and stream buffers, which store a continuous stream of
 924:./Drivers/FreeRTOS/stream_buffer.c ****      * bytes.  Discrete messages include an additional
 925:./Drivers/FreeRTOS/stream_buffer.c ****      * sbBYTES_TO_STORE_MESSAGE_LENGTH bytes that hold the length of the
 926:./Drivers/FreeRTOS/stream_buffer.c ****      * message. */
 927:./Drivers/FreeRTOS/stream_buffer.c ****     if( ( pxStreamBuffer->ucFlags & sbFLAGS_IS_MESSAGE_BUFFER ) != ( uint8_t ) 0 )
 1771              		.loc 1 927 25
 1772 004e FB6A     		ldr	r3, [r7, #44]
 1773 0050 1B7F     		ldrb	r3, [r3, #28]	@ zero_extendqisi2
 1774              		.loc 1 927 35
 1775 0052 03F00103 		and	r3, r3, #1
 1776              		.loc 1 927 7
 1777 0056 002B     		cmp	r3, #0
 1778 0058 02D0     		beq	.L106
 928:./Drivers/FreeRTOS/stream_buffer.c ****     {
 929:./Drivers/FreeRTOS/stream_buffer.c ****         xBytesToStoreMessageLength = sbBYTES_TO_STORE_MESSAGE_LENGTH;
 1779              		.loc 1 929 36
 1780 005a 0423     		movs	r3, #4
 1781 005c 3B63     		str	r3, [r7, #48]
 1782 005e 01E0     		b	.L107
 1783              	.L106:
 930:./Drivers/FreeRTOS/stream_buffer.c ****     }
 931:./Drivers/FreeRTOS/stream_buffer.c ****     else
 932:./Drivers/FreeRTOS/stream_buffer.c ****     {
 933:./Drivers/FreeRTOS/stream_buffer.c ****         xBytesToStoreMessageLength = 0;
 1784              		.loc 1 933 36
 1785 0060 0023     		movs	r3, #0
 1786 0062 3B63     		str	r3, [r7, #48]
 1787              	.L107:
 934:./Drivers/FreeRTOS/stream_buffer.c ****     }
 935:./Drivers/FreeRTOS/stream_buffer.c **** 
 936:./Drivers/FreeRTOS/stream_buffer.c ****     xBytesAvailable = prvBytesInBuffer( pxStreamBuffer );
ARM GAS  C:\Users\Benson\AppData\Local\Temp\ccHty0UJ.s 			page 53


 1788              		.loc 1 936 23
 1789 0064 F86A     		ldr	r0, [r7, #44]
 1790 0066 FFF7FEFF 		bl	prvBytesInBuffer
 1791 006a B862     		str	r0, [r7, #40]
 937:./Drivers/FreeRTOS/stream_buffer.c **** 
 938:./Drivers/FreeRTOS/stream_buffer.c ****     /* Whether receiving a discrete message (where xBytesToStoreMessageLength
 939:./Drivers/FreeRTOS/stream_buffer.c ****      * holds the number of bytes used to store the message length) or a stream of
 940:./Drivers/FreeRTOS/stream_buffer.c ****      * bytes (where xBytesToStoreMessageLength is zero), the number of bytes
 941:./Drivers/FreeRTOS/stream_buffer.c ****      * available must be greater than xBytesToStoreMessageLength to be able to
 942:./Drivers/FreeRTOS/stream_buffer.c ****      * read bytes from the buffer. */
 943:./Drivers/FreeRTOS/stream_buffer.c ****     if( xBytesAvailable > xBytesToStoreMessageLength )
 1792              		.loc 1 943 7
 1793 006c BA6A     		ldr	r2, [r7, #40]
 1794 006e 3B6B     		ldr	r3, [r7, #48]
 1795 0070 9A42     		cmp	r2, r3
 1796 0072 2FD9     		bls	.L108
 944:./Drivers/FreeRTOS/stream_buffer.c ****     {
 945:./Drivers/FreeRTOS/stream_buffer.c ****         xReceivedLength = prvReadMessageFromBuffer( pxStreamBuffer, pvRxData, xBufferLengthBytes, x
 1797              		.loc 1 945 27
 1798 0074 BB6A     		ldr	r3, [r7, #40]
 1799 0076 7A68     		ldr	r2, [r7, #4]
 1800 0078 B968     		ldr	r1, [r7, #8]
 1801 007a F86A     		ldr	r0, [r7, #44]
 1802 007c FFF7FEFF 		bl	prvReadMessageFromBuffer
 1803 0080 7863     		str	r0, [r7, #52]
 946:./Drivers/FreeRTOS/stream_buffer.c **** 
 947:./Drivers/FreeRTOS/stream_buffer.c ****         /* Was a task waiting for space in the buffer? */
 948:./Drivers/FreeRTOS/stream_buffer.c ****         if( xReceivedLength != ( size_t ) 0 )
 1804              		.loc 1 948 11
 1805 0082 7B6B     		ldr	r3, [r7, #52]
 1806 0084 002B     		cmp	r3, #0
 1807 0086 25D0     		beq	.L108
 1808              	.LBB132:
 1809              	.LBB133:
 1810              	.LBB134:
 214:Drivers/FreeRTOS/portable/GCC/ARM_CM4F/portmacro.h ****         (
 1811              		.loc 2 214 9
 1812              		.syntax unified
 1813              	@ 214 "Drivers/FreeRTOS/portable/GCC/ARM_CM4F/portmacro.h" 1
 1814 0088 EFF31182 			mrs r2, basepri											
 1815 008c 4FF05003 		mov r3, #80												
 1816 0090 83F31188 		msr basepri, r3											
 1817 0094 BFF36F8F 		isb														
 1818 0098 BFF34F8F 		dsb														
 1819              	
 1820              	@ 0 "" 2
 1821              		.thumb
 1822              		.syntax unified
 1823 009c BA61     		str	r2, [r7, #24]
 1824 009e 7B61     		str	r3, [r7, #20]
 226:Drivers/FreeRTOS/portable/GCC/ARM_CM4F/portmacro.h ****     }
 1825              		.loc 2 226 16
 1826 00a0 BB69     		ldr	r3, [r7, #24]
 1827              	.LBE134:
 1828              	.LBE133:
 949:./Drivers/FreeRTOS/stream_buffer.c ****         {
 950:./Drivers/FreeRTOS/stream_buffer.c ****             sbRECEIVE_COMPLETED_FROM_ISR( pxStreamBuffer, pxHigherPriorityTaskWoken );
ARM GAS  C:\Users\Benson\AppData\Local\Temp\ccHty0UJ.s 			page 54


 1829              		.loc 1 950 13
 1830 00a2 7B62     		str	r3, [r7, #36]
 1831 00a4 FB6A     		ldr	r3, [r7, #44]
 1832 00a6 5B69     		ldr	r3, [r3, #20]
 1833 00a8 002B     		cmp	r3, #0
 1834 00aa 0DD0     		beq	.L110
 1835              		.loc 1 950 13 is_stmt 0 discriminator 1
 1836 00ac FB6A     		ldr	r3, [r7, #44]
 1837 00ae 5869     		ldr	r0, [r3, #20]
 1838 00b0 3B68     		ldr	r3, [r7]
 1839 00b2 0193     		str	r3, [sp, #4]
 1840 00b4 0023     		movs	r3, #0
 1841 00b6 0093     		str	r3, [sp]
 1842 00b8 0023     		movs	r3, #0
 1843 00ba 0022     		movs	r2, #0
 1844 00bc 0021     		movs	r1, #0
 1845 00be FFF7FEFF 		bl	xTaskGenericNotifyFromISR
 1846 00c2 FB6A     		ldr	r3, [r7, #44]
 1847 00c4 0022     		movs	r2, #0
 1848 00c6 5A61     		str	r2, [r3, #20]
 1849              	.L110:
 1850 00c8 7B6A     		ldr	r3, [r7, #36]
 1851 00ca 3B61     		str	r3, [r7, #16]
 1852              	.LBB135:
 1853              	.LBB136:
 232:Drivers/FreeRTOS/portable/GCC/ARM_CM4F/portmacro.h ****         (
 1854              		.loc 2 232 9 is_stmt 1 discriminator 3
 1855 00cc 3B69     		ldr	r3, [r7, #16]
 1856              		.syntax unified
 1857              	@ 232 "Drivers/FreeRTOS/portable/GCC/ARM_CM4F/portmacro.h" 1
 1858 00ce 83F31188 			msr basepri, r3	
 1859              	@ 0 "" 2
 1860              		.loc 2 236 5 discriminator 3
 1861              		.thumb
 1862              		.syntax unified
 1863 00d2 00BF     		nop
 1864              	.L108:
 1865              	.LBE136:
 1866              	.LBE135:
 1867              	.LBE132:
 951:./Drivers/FreeRTOS/stream_buffer.c ****         }
 952:./Drivers/FreeRTOS/stream_buffer.c ****         else
 953:./Drivers/FreeRTOS/stream_buffer.c ****         {
 954:./Drivers/FreeRTOS/stream_buffer.c ****             mtCOVERAGE_TEST_MARKER();
 955:./Drivers/FreeRTOS/stream_buffer.c ****         }
 956:./Drivers/FreeRTOS/stream_buffer.c ****     }
 957:./Drivers/FreeRTOS/stream_buffer.c ****     else
 958:./Drivers/FreeRTOS/stream_buffer.c ****     {
 959:./Drivers/FreeRTOS/stream_buffer.c ****         mtCOVERAGE_TEST_MARKER();
 960:./Drivers/FreeRTOS/stream_buffer.c ****     }
 961:./Drivers/FreeRTOS/stream_buffer.c **** 
 962:./Drivers/FreeRTOS/stream_buffer.c ****     traceSTREAM_BUFFER_RECEIVE_FROM_ISR( xStreamBuffer, xReceivedLength );
 963:./Drivers/FreeRTOS/stream_buffer.c **** 
 964:./Drivers/FreeRTOS/stream_buffer.c ****     return xReceivedLength;
 1868              		.loc 1 964 12
 1869 00d4 7B6B     		ldr	r3, [r7, #52]
 965:./Drivers/FreeRTOS/stream_buffer.c **** }
ARM GAS  C:\Users\Benson\AppData\Local\Temp\ccHty0UJ.s 			page 55


 1870              		.loc 1 965 1
 1871 00d6 1846     		mov	r0, r3
 1872 00d8 3837     		adds	r7, r7, #56
 1873              	.LCFI60:
 1874              		.cfi_def_cfa_offset 8
 1875 00da BD46     		mov	sp, r7
 1876              	.LCFI61:
 1877              		.cfi_def_cfa_register 13
 1878              		@ sp needed
 1879 00dc 80BD     		pop	{r7, pc}
 1880              		.cfi_endproc
 1881              	.LFE16:
 1883              		.section	.text.prvReadMessageFromBuffer,"ax",%progbits
 1884              		.align	1
 1885              		.syntax unified
 1886              		.thumb
 1887              		.thumb_func
 1888              		.fpu fpv4-sp-d16
 1890              	prvReadMessageFromBuffer:
 1891              	.LFB17:
 966:./Drivers/FreeRTOS/stream_buffer.c **** /*-----------------------------------------------------------*/
 967:./Drivers/FreeRTOS/stream_buffer.c **** 
 968:./Drivers/FreeRTOS/stream_buffer.c **** static size_t prvReadMessageFromBuffer( StreamBuffer_t * pxStreamBuffer,
 969:./Drivers/FreeRTOS/stream_buffer.c ****                                         void * pvRxData,
 970:./Drivers/FreeRTOS/stream_buffer.c ****                                         size_t xBufferLengthBytes,
 971:./Drivers/FreeRTOS/stream_buffer.c ****                                         size_t xBytesAvailable )
 972:./Drivers/FreeRTOS/stream_buffer.c **** {
 1892              		.loc 1 972 1
 1893              		.cfi_startproc
 1894              		@ args = 0, pretend = 0, frame = 32
 1895              		@ frame_needed = 1, uses_anonymous_args = 0
 1896 0000 80B5     		push	{r7, lr}
 1897              	.LCFI62:
 1898              		.cfi_def_cfa_offset 8
 1899              		.cfi_offset 7, -8
 1900              		.cfi_offset 14, -4
 1901 0002 88B0     		sub	sp, sp, #32
 1902              	.LCFI63:
 1903              		.cfi_def_cfa_offset 40
 1904 0004 00AF     		add	r7, sp, #0
 1905              	.LCFI64:
 1906              		.cfi_def_cfa_register 7
 1907 0006 F860     		str	r0, [r7, #12]
 1908 0008 B960     		str	r1, [r7, #8]
 1909 000a 7A60     		str	r2, [r7, #4]
 1910 000c 3B60     		str	r3, [r7]
 973:./Drivers/FreeRTOS/stream_buffer.c ****     size_t xCount, xNextMessageLength;
 974:./Drivers/FreeRTOS/stream_buffer.c ****     configMESSAGE_BUFFER_LENGTH_TYPE xTempNextMessageLength;
 975:./Drivers/FreeRTOS/stream_buffer.c ****     size_t xNextTail = pxStreamBuffer->xTail;
 1911              		.loc 1 975 12
 1912 000e FB68     		ldr	r3, [r7, #12]
 1913 0010 1B68     		ldr	r3, [r3]
 1914 0012 BB61     		str	r3, [r7, #24]
 976:./Drivers/FreeRTOS/stream_buffer.c **** 
 977:./Drivers/FreeRTOS/stream_buffer.c ****     if( ( pxStreamBuffer->ucFlags & sbFLAGS_IS_MESSAGE_BUFFER ) != ( uint8_t ) 0 )
 1915              		.loc 1 977 25
 1916 0014 FB68     		ldr	r3, [r7, #12]
ARM GAS  C:\Users\Benson\AppData\Local\Temp\ccHty0UJ.s 			page 56


 1917 0016 1B7F     		ldrb	r3, [r3, #28]	@ zero_extendqisi2
 1918              		.loc 1 977 35
 1919 0018 03F00103 		and	r3, r3, #1
 1920              		.loc 1 977 7
 1921 001c 002B     		cmp	r3, #0
 1922 001e 13D0     		beq	.L113
 978:./Drivers/FreeRTOS/stream_buffer.c ****     {
 979:./Drivers/FreeRTOS/stream_buffer.c ****         /* A discrete message is being received.  First receive the length
 980:./Drivers/FreeRTOS/stream_buffer.c ****          * of the message. */
 981:./Drivers/FreeRTOS/stream_buffer.c ****         xNextTail = prvReadBytesFromBuffer( pxStreamBuffer, ( uint8_t * ) &xTempNextMessageLength, 
 1923              		.loc 1 981 21
 1924 0020 07F11001 		add	r1, r7, #16
 1925 0024 BB69     		ldr	r3, [r7, #24]
 1926 0026 0422     		movs	r2, #4
 1927 0028 F868     		ldr	r0, [r7, #12]
 1928 002a FFF7FEFF 		bl	prvReadBytesFromBuffer
 1929 002e B861     		str	r0, [r7, #24]
 982:./Drivers/FreeRTOS/stream_buffer.c ****         xNextMessageLength = ( size_t ) xTempNextMessageLength;
 1930              		.loc 1 982 28
 1931 0030 3B69     		ldr	r3, [r7, #16]
 1932 0032 FB61     		str	r3, [r7, #28]
 983:./Drivers/FreeRTOS/stream_buffer.c **** 
 984:./Drivers/FreeRTOS/stream_buffer.c ****         /* Reduce the number of bytes available by the number of bytes just
 985:./Drivers/FreeRTOS/stream_buffer.c ****          * read out. */
 986:./Drivers/FreeRTOS/stream_buffer.c ****         xBytesAvailable -= sbBYTES_TO_STORE_MESSAGE_LENGTH;
 1933              		.loc 1 986 25
 1934 0034 3B68     		ldr	r3, [r7]
 1935 0036 043B     		subs	r3, r3, #4
 1936 0038 3B60     		str	r3, [r7]
 987:./Drivers/FreeRTOS/stream_buffer.c **** 
 988:./Drivers/FreeRTOS/stream_buffer.c ****         /* Check there is enough space in the buffer provided by the
 989:./Drivers/FreeRTOS/stream_buffer.c ****          * user. */
 990:./Drivers/FreeRTOS/stream_buffer.c ****         if( xNextMessageLength > xBufferLengthBytes )
 1937              		.loc 1 990 11
 1938 003a FA69     		ldr	r2, [r7, #28]
 1939 003c 7B68     		ldr	r3, [r7, #4]
 1940 003e 9A42     		cmp	r2, r3
 1941 0040 04D9     		bls	.L114
 991:./Drivers/FreeRTOS/stream_buffer.c ****         {
 992:./Drivers/FreeRTOS/stream_buffer.c ****             /* The user has provided insufficient space to read the message. */
 993:./Drivers/FreeRTOS/stream_buffer.c ****             xNextMessageLength = 0;
 1942              		.loc 1 993 32
 1943 0042 0023     		movs	r3, #0
 1944 0044 FB61     		str	r3, [r7, #28]
 1945 0046 01E0     		b	.L114
 1946              	.L113:
 994:./Drivers/FreeRTOS/stream_buffer.c ****         }
 995:./Drivers/FreeRTOS/stream_buffer.c ****         else
 996:./Drivers/FreeRTOS/stream_buffer.c ****         {
 997:./Drivers/FreeRTOS/stream_buffer.c ****             mtCOVERAGE_TEST_MARKER();
 998:./Drivers/FreeRTOS/stream_buffer.c ****         }
 999:./Drivers/FreeRTOS/stream_buffer.c ****     }
1000:./Drivers/FreeRTOS/stream_buffer.c ****     else
1001:./Drivers/FreeRTOS/stream_buffer.c ****     {
1002:./Drivers/FreeRTOS/stream_buffer.c ****         /* A stream of bytes is being received (as opposed to a discrete
1003:./Drivers/FreeRTOS/stream_buffer.c ****          * message), so read as many bytes as possible. */
1004:./Drivers/FreeRTOS/stream_buffer.c ****         xNextMessageLength = xBufferLengthBytes;
ARM GAS  C:\Users\Benson\AppData\Local\Temp\ccHty0UJ.s 			page 57


 1947              		.loc 1 1004 28
 1948 0048 7B68     		ldr	r3, [r7, #4]
 1949 004a FB61     		str	r3, [r7, #28]
 1950              	.L114:
1005:./Drivers/FreeRTOS/stream_buffer.c ****     }
1006:./Drivers/FreeRTOS/stream_buffer.c **** 
1007:./Drivers/FreeRTOS/stream_buffer.c ****     /* Use the minimum of the wanted bytes and the available bytes. */
1008:./Drivers/FreeRTOS/stream_buffer.c ****     xCount = configMIN( xNextMessageLength, xBytesAvailable );
 1951              		.loc 1 1008 12
 1952 004c 3A68     		ldr	r2, [r7]
 1953 004e FB69     		ldr	r3, [r7, #28]
 1954 0050 9342     		cmp	r3, r2
 1955 0052 28BF     		it	cs
 1956 0054 1346     		movcs	r3, r2
 1957 0056 7B61     		str	r3, [r7, #20]
1009:./Drivers/FreeRTOS/stream_buffer.c **** 
1010:./Drivers/FreeRTOS/stream_buffer.c ****     if( xCount != ( size_t ) 0 )
 1958              		.loc 1 1010 7
 1959 0058 7B69     		ldr	r3, [r7, #20]
 1960 005a 002B     		cmp	r3, #0
 1961 005c 08D0     		beq	.L115
1011:./Drivers/FreeRTOS/stream_buffer.c ****     {
1012:./Drivers/FreeRTOS/stream_buffer.c ****         /* Read the actual data and update the tail to mark the data as officially consumed. */
1013:./Drivers/FreeRTOS/stream_buffer.c ****         pxStreamBuffer->xTail = prvReadBytesFromBuffer( pxStreamBuffer, ( uint8_t * ) pvRxData, xCo
 1962              		.loc 1 1013 33
 1963 005e BB69     		ldr	r3, [r7, #24]
 1964 0060 7A69     		ldr	r2, [r7, #20]
 1965 0062 B968     		ldr	r1, [r7, #8]
 1966 0064 F868     		ldr	r0, [r7, #12]
 1967 0066 FFF7FEFF 		bl	prvReadBytesFromBuffer
 1968 006a 0246     		mov	r2, r0
 1969              		.loc 1 1013 31
 1970 006c FB68     		ldr	r3, [r7, #12]
 1971 006e 1A60     		str	r2, [r3]
 1972              	.L115:
1014:./Drivers/FreeRTOS/stream_buffer.c ****     }
1015:./Drivers/FreeRTOS/stream_buffer.c **** 
1016:./Drivers/FreeRTOS/stream_buffer.c ****     return xCount;
 1973              		.loc 1 1016 12
 1974 0070 7B69     		ldr	r3, [r7, #20]
1017:./Drivers/FreeRTOS/stream_buffer.c **** }
 1975              		.loc 1 1017 1
 1976 0072 1846     		mov	r0, r3
 1977 0074 2037     		adds	r7, r7, #32
 1978              	.LCFI65:
 1979              		.cfi_def_cfa_offset 8
 1980 0076 BD46     		mov	sp, r7
 1981              	.LCFI66:
 1982              		.cfi_def_cfa_register 13
 1983              		@ sp needed
 1984 0078 80BD     		pop	{r7, pc}
 1985              		.cfi_endproc
 1986              	.LFE17:
 1988              		.section	.text.xStreamBufferIsEmpty,"ax",%progbits
 1989              		.align	1
 1990              		.global	xStreamBufferIsEmpty
 1991              		.syntax unified
ARM GAS  C:\Users\Benson\AppData\Local\Temp\ccHty0UJ.s 			page 58


 1992              		.thumb
 1993              		.thumb_func
 1994              		.fpu fpv4-sp-d16
 1996              	xStreamBufferIsEmpty:
 1997              	.LFB18:
1018:./Drivers/FreeRTOS/stream_buffer.c **** /*-----------------------------------------------------------*/
1019:./Drivers/FreeRTOS/stream_buffer.c **** 
1020:./Drivers/FreeRTOS/stream_buffer.c **** BaseType_t xStreamBufferIsEmpty( StreamBufferHandle_t xStreamBuffer )
1021:./Drivers/FreeRTOS/stream_buffer.c **** {
 1998              		.loc 1 1021 1
 1999              		.cfi_startproc
 2000              		@ args = 0, pretend = 0, frame = 24
 2001              		@ frame_needed = 1, uses_anonymous_args = 0
 2002              		@ link register save eliminated.
 2003 0000 80B4     		push	{r7}
 2004              	.LCFI67:
 2005              		.cfi_def_cfa_offset 4
 2006              		.cfi_offset 7, -4
 2007 0002 87B0     		sub	sp, sp, #28
 2008              	.LCFI68:
 2009              		.cfi_def_cfa_offset 32
 2010 0004 00AF     		add	r7, sp, #0
 2011              	.LCFI69:
 2012              		.cfi_def_cfa_register 7
 2013 0006 7860     		str	r0, [r7, #4]
1022:./Drivers/FreeRTOS/stream_buffer.c ****     const StreamBuffer_t * const pxStreamBuffer = xStreamBuffer;
 2014              		.loc 1 1022 34
 2015 0008 7B68     		ldr	r3, [r7, #4]
 2016 000a 3B61     		str	r3, [r7, #16]
1023:./Drivers/FreeRTOS/stream_buffer.c ****     BaseType_t xReturn;
1024:./Drivers/FreeRTOS/stream_buffer.c ****     size_t xTail;
1025:./Drivers/FreeRTOS/stream_buffer.c **** 
1026:./Drivers/FreeRTOS/stream_buffer.c ****     configASSERT( pxStreamBuffer );
 2017              		.loc 1 1026 5
 2018 000c 3B69     		ldr	r3, [r7, #16]
 2019 000e 002B     		cmp	r3, #0
 2020 0010 0AD1     		bne	.L118
 2021              	.LBB137:
 2022              	.LBB138:
 198:Drivers/FreeRTOS/portable/GCC/ARM_CM4F/portmacro.h ****         (
 2023              		.loc 2 198 9
 2024              		.syntax unified
 2025              	@ 198 "Drivers/FreeRTOS/portable/GCC/ARM_CM4F/portmacro.h" 1
 2026 0012 4FF05003 			mov r3, #80												
 2027 0016 83F31188 		msr basepri, r3											
 2028 001a BFF36F8F 		isb														
 2029 001e BFF34F8F 		dsb														
 2030              	
 2031              	@ 0 "" 2
 2032              		.thumb
 2033              		.syntax unified
 2034 0022 BB60     		str	r3, [r7, #8]
 206:Drivers/FreeRTOS/portable/GCC/ARM_CM4F/portmacro.h **** 
 2035              		.loc 2 206 5
 2036 0024 00BF     		nop
 2037              	.L119:
 2038              	.LBE138:
ARM GAS  C:\Users\Benson\AppData\Local\Temp\ccHty0UJ.s 			page 59


 2039              	.LBE137:
 2040              		.loc 1 1026 5 discriminator 1
 2041 0026 FEE7     		b	.L119
 2042              	.L118:
1027:./Drivers/FreeRTOS/stream_buffer.c **** 
1028:./Drivers/FreeRTOS/stream_buffer.c ****     /* True if no bytes are available. */
1029:./Drivers/FreeRTOS/stream_buffer.c ****     xTail = pxStreamBuffer->xTail;
 2043              		.loc 1 1029 11
 2044 0028 3B69     		ldr	r3, [r7, #16]
 2045 002a 1B68     		ldr	r3, [r3]
 2046 002c FB60     		str	r3, [r7, #12]
1030:./Drivers/FreeRTOS/stream_buffer.c **** 
1031:./Drivers/FreeRTOS/stream_buffer.c ****     if( pxStreamBuffer->xHead == xTail )
 2047              		.loc 1 1031 23
 2048 002e 3B69     		ldr	r3, [r7, #16]
 2049 0030 5B68     		ldr	r3, [r3, #4]
 2050              		.loc 1 1031 7
 2051 0032 FA68     		ldr	r2, [r7, #12]
 2052 0034 9A42     		cmp	r2, r3
 2053 0036 02D1     		bne	.L120
1032:./Drivers/FreeRTOS/stream_buffer.c ****     {
1033:./Drivers/FreeRTOS/stream_buffer.c ****         xReturn = pdTRUE;
 2054              		.loc 1 1033 17
 2055 0038 0123     		movs	r3, #1
 2056 003a 7B61     		str	r3, [r7, #20]
 2057 003c 01E0     		b	.L121
 2058              	.L120:
1034:./Drivers/FreeRTOS/stream_buffer.c ****     }
1035:./Drivers/FreeRTOS/stream_buffer.c ****     else
1036:./Drivers/FreeRTOS/stream_buffer.c ****     {
1037:./Drivers/FreeRTOS/stream_buffer.c ****         xReturn = pdFALSE;
 2059              		.loc 1 1037 17
 2060 003e 0023     		movs	r3, #0
 2061 0040 7B61     		str	r3, [r7, #20]
 2062              	.L121:
1038:./Drivers/FreeRTOS/stream_buffer.c ****     }
1039:./Drivers/FreeRTOS/stream_buffer.c **** 
1040:./Drivers/FreeRTOS/stream_buffer.c ****     return xReturn;
 2063              		.loc 1 1040 12
 2064 0042 7B69     		ldr	r3, [r7, #20]
1041:./Drivers/FreeRTOS/stream_buffer.c **** }
 2065              		.loc 1 1041 1
 2066 0044 1846     		mov	r0, r3
 2067 0046 1C37     		adds	r7, r7, #28
 2068              	.LCFI70:
 2069              		.cfi_def_cfa_offset 4
 2070 0048 BD46     		mov	sp, r7
 2071              	.LCFI71:
 2072              		.cfi_def_cfa_register 13
 2073              		@ sp needed
 2074 004a 5DF8047B 		ldr	r7, [sp], #4
 2075              	.LCFI72:
 2076              		.cfi_restore 7
 2077              		.cfi_def_cfa_offset 0
 2078 004e 7047     		bx	lr
 2079              		.cfi_endproc
 2080              	.LFE18:
ARM GAS  C:\Users\Benson\AppData\Local\Temp\ccHty0UJ.s 			page 60


 2082              		.section	.text.xStreamBufferIsFull,"ax",%progbits
 2083              		.align	1
 2084              		.global	xStreamBufferIsFull
 2085              		.syntax unified
 2086              		.thumb
 2087              		.thumb_func
 2088              		.fpu fpv4-sp-d16
 2090              	xStreamBufferIsFull:
 2091              	.LFB19:
1042:./Drivers/FreeRTOS/stream_buffer.c **** /*-----------------------------------------------------------*/
1043:./Drivers/FreeRTOS/stream_buffer.c **** 
1044:./Drivers/FreeRTOS/stream_buffer.c **** BaseType_t xStreamBufferIsFull( StreamBufferHandle_t xStreamBuffer )
1045:./Drivers/FreeRTOS/stream_buffer.c **** {
 2092              		.loc 1 1045 1
 2093              		.cfi_startproc
 2094              		@ args = 0, pretend = 0, frame = 24
 2095              		@ frame_needed = 1, uses_anonymous_args = 0
 2096 0000 80B5     		push	{r7, lr}
 2097              	.LCFI73:
 2098              		.cfi_def_cfa_offset 8
 2099              		.cfi_offset 7, -8
 2100              		.cfi_offset 14, -4
 2101 0002 86B0     		sub	sp, sp, #24
 2102              	.LCFI74:
 2103              		.cfi_def_cfa_offset 32
 2104 0004 00AF     		add	r7, sp, #0
 2105              	.LCFI75:
 2106              		.cfi_def_cfa_register 7
 2107 0006 7860     		str	r0, [r7, #4]
1046:./Drivers/FreeRTOS/stream_buffer.c ****     BaseType_t xReturn;
1047:./Drivers/FreeRTOS/stream_buffer.c ****     size_t xBytesToStoreMessageLength;
1048:./Drivers/FreeRTOS/stream_buffer.c ****     const StreamBuffer_t * const pxStreamBuffer = xStreamBuffer;
 2108              		.loc 1 1048 34
 2109 0008 7B68     		ldr	r3, [r7, #4]
 2110 000a FB60     		str	r3, [r7, #12]
1049:./Drivers/FreeRTOS/stream_buffer.c **** 
1050:./Drivers/FreeRTOS/stream_buffer.c ****     configASSERT( pxStreamBuffer );
 2111              		.loc 1 1050 5
 2112 000c FB68     		ldr	r3, [r7, #12]
 2113 000e 002B     		cmp	r3, #0
 2114 0010 0AD1     		bne	.L124
 2115              	.LBB139:
 2116              	.LBB140:
 198:Drivers/FreeRTOS/portable/GCC/ARM_CM4F/portmacro.h ****         (
 2117              		.loc 2 198 9
 2118              		.syntax unified
 2119              	@ 198 "Drivers/FreeRTOS/portable/GCC/ARM_CM4F/portmacro.h" 1
 2120 0012 4FF05003 			mov r3, #80												
 2121 0016 83F31188 		msr basepri, r3											
 2122 001a BFF36F8F 		isb														
 2123 001e BFF34F8F 		dsb														
 2124              	
 2125              	@ 0 "" 2
 2126              		.thumb
 2127              		.syntax unified
 2128 0022 BB60     		str	r3, [r7, #8]
 206:Drivers/FreeRTOS/portable/GCC/ARM_CM4F/portmacro.h **** 
ARM GAS  C:\Users\Benson\AppData\Local\Temp\ccHty0UJ.s 			page 61


 2129              		.loc 2 206 5
 2130 0024 00BF     		nop
 2131              	.L125:
 2132              	.LBE140:
 2133              	.LBE139:
 2134              		.loc 1 1050 5 discriminator 1
 2135 0026 FEE7     		b	.L125
 2136              	.L124:
1051:./Drivers/FreeRTOS/stream_buffer.c **** 
1052:./Drivers/FreeRTOS/stream_buffer.c ****     /* This generic version of the receive function is used by both message
1053:./Drivers/FreeRTOS/stream_buffer.c ****      * buffers, which store discrete messages, and stream buffers, which store a
1054:./Drivers/FreeRTOS/stream_buffer.c ****      * continuous stream of bytes.  Discrete messages include an additional
1055:./Drivers/FreeRTOS/stream_buffer.c ****      * sbBYTES_TO_STORE_MESSAGE_LENGTH bytes that hold the length of the message. */
1056:./Drivers/FreeRTOS/stream_buffer.c ****     if( ( pxStreamBuffer->ucFlags & sbFLAGS_IS_MESSAGE_BUFFER ) != ( uint8_t ) 0 )
 2137              		.loc 1 1056 25
 2138 0028 FB68     		ldr	r3, [r7, #12]
 2139 002a 1B7F     		ldrb	r3, [r3, #28]	@ zero_extendqisi2
 2140              		.loc 1 1056 35
 2141 002c 03F00103 		and	r3, r3, #1
 2142              		.loc 1 1056 7
 2143 0030 002B     		cmp	r3, #0
 2144 0032 02D0     		beq	.L126
1057:./Drivers/FreeRTOS/stream_buffer.c ****     {
1058:./Drivers/FreeRTOS/stream_buffer.c ****         xBytesToStoreMessageLength = sbBYTES_TO_STORE_MESSAGE_LENGTH;
 2145              		.loc 1 1058 36
 2146 0034 0423     		movs	r3, #4
 2147 0036 3B61     		str	r3, [r7, #16]
 2148 0038 01E0     		b	.L127
 2149              	.L126:
1059:./Drivers/FreeRTOS/stream_buffer.c ****     }
1060:./Drivers/FreeRTOS/stream_buffer.c ****     else
1061:./Drivers/FreeRTOS/stream_buffer.c ****     {
1062:./Drivers/FreeRTOS/stream_buffer.c ****         xBytesToStoreMessageLength = 0;
 2150              		.loc 1 1062 36
 2151 003a 0023     		movs	r3, #0
 2152 003c 3B61     		str	r3, [r7, #16]
 2153              	.L127:
1063:./Drivers/FreeRTOS/stream_buffer.c ****     }
1064:./Drivers/FreeRTOS/stream_buffer.c **** 
1065:./Drivers/FreeRTOS/stream_buffer.c ****     /* True if the available space equals zero. */
1066:./Drivers/FreeRTOS/stream_buffer.c ****     if( xStreamBufferSpacesAvailable( xStreamBuffer ) <= xBytesToStoreMessageLength )
 2154              		.loc 1 1066 9
 2155 003e 7868     		ldr	r0, [r7, #4]
 2156 0040 FFF7FEFF 		bl	xStreamBufferSpacesAvailable
 2157 0044 0246     		mov	r2, r0
 2158              		.loc 1 1066 7
 2159 0046 3B69     		ldr	r3, [r7, #16]
 2160 0048 9342     		cmp	r3, r2
 2161 004a 02D3     		bcc	.L128
1067:./Drivers/FreeRTOS/stream_buffer.c ****     {
1068:./Drivers/FreeRTOS/stream_buffer.c ****         xReturn = pdTRUE;
 2162              		.loc 1 1068 17
 2163 004c 0123     		movs	r3, #1
 2164 004e 7B61     		str	r3, [r7, #20]
 2165 0050 01E0     		b	.L129
 2166              	.L128:
1069:./Drivers/FreeRTOS/stream_buffer.c ****     }
ARM GAS  C:\Users\Benson\AppData\Local\Temp\ccHty0UJ.s 			page 62


1070:./Drivers/FreeRTOS/stream_buffer.c ****     else
1071:./Drivers/FreeRTOS/stream_buffer.c ****     {
1072:./Drivers/FreeRTOS/stream_buffer.c ****         xReturn = pdFALSE;
 2167              		.loc 1 1072 17
 2168 0052 0023     		movs	r3, #0
 2169 0054 7B61     		str	r3, [r7, #20]
 2170              	.L129:
1073:./Drivers/FreeRTOS/stream_buffer.c ****     }
1074:./Drivers/FreeRTOS/stream_buffer.c **** 
1075:./Drivers/FreeRTOS/stream_buffer.c ****     return xReturn;
 2171              		.loc 1 1075 12
 2172 0056 7B69     		ldr	r3, [r7, #20]
1076:./Drivers/FreeRTOS/stream_buffer.c **** }
 2173              		.loc 1 1076 1
 2174 0058 1846     		mov	r0, r3
 2175 005a 1837     		adds	r7, r7, #24
 2176              	.LCFI76:
 2177              		.cfi_def_cfa_offset 8
 2178 005c BD46     		mov	sp, r7
 2179              	.LCFI77:
 2180              		.cfi_def_cfa_register 13
 2181              		@ sp needed
 2182 005e 80BD     		pop	{r7, pc}
 2183              		.cfi_endproc
 2184              	.LFE19:
 2186              		.section	.text.xStreamBufferSendCompletedFromISR,"ax",%progbits
 2187              		.align	1
 2188              		.global	xStreamBufferSendCompletedFromISR
 2189              		.syntax unified
 2190              		.thumb
 2191              		.thumb_func
 2192              		.fpu fpv4-sp-d16
 2194              	xStreamBufferSendCompletedFromISR:
 2195              	.LFB20:
1077:./Drivers/FreeRTOS/stream_buffer.c **** /*-----------------------------------------------------------*/
1078:./Drivers/FreeRTOS/stream_buffer.c **** 
1079:./Drivers/FreeRTOS/stream_buffer.c **** BaseType_t xStreamBufferSendCompletedFromISR( StreamBufferHandle_t xStreamBuffer,
1080:./Drivers/FreeRTOS/stream_buffer.c ****                                               BaseType_t * pxHigherPriorityTaskWoken )
1081:./Drivers/FreeRTOS/stream_buffer.c **** {
 2196              		.loc 1 1081 1
 2197              		.cfi_startproc
 2198              		@ args = 0, pretend = 0, frame = 40
 2199              		@ frame_needed = 1, uses_anonymous_args = 0
 2200 0000 80B5     		push	{r7, lr}
 2201              	.LCFI78:
 2202              		.cfi_def_cfa_offset 8
 2203              		.cfi_offset 7, -8
 2204              		.cfi_offset 14, -4
 2205 0002 8CB0     		sub	sp, sp, #48
 2206              	.LCFI79:
 2207              		.cfi_def_cfa_offset 56
 2208 0004 02AF     		add	r7, sp, #8
 2209              	.LCFI80:
 2210              		.cfi_def_cfa 7, 48
 2211 0006 7860     		str	r0, [r7, #4]
 2212 0008 3960     		str	r1, [r7]
1082:./Drivers/FreeRTOS/stream_buffer.c ****     StreamBuffer_t * const pxStreamBuffer = xStreamBuffer;
ARM GAS  C:\Users\Benson\AppData\Local\Temp\ccHty0UJ.s 			page 63


 2213              		.loc 1 1082 28
 2214 000a 7B68     		ldr	r3, [r7, #4]
 2215 000c 3B62     		str	r3, [r7, #32]
1083:./Drivers/FreeRTOS/stream_buffer.c ****     BaseType_t xReturn;
1084:./Drivers/FreeRTOS/stream_buffer.c ****     UBaseType_t uxSavedInterruptStatus;
1085:./Drivers/FreeRTOS/stream_buffer.c **** 
1086:./Drivers/FreeRTOS/stream_buffer.c ****     configASSERT( pxStreamBuffer );
 2216              		.loc 1 1086 5
 2217 000e 3B6A     		ldr	r3, [r7, #32]
 2218 0010 002B     		cmp	r3, #0
 2219 0012 0AD1     		bne	.L132
 2220              	.LBB141:
 2221              	.LBB142:
 198:Drivers/FreeRTOS/portable/GCC/ARM_CM4F/portmacro.h ****         (
 2222              		.loc 2 198 9
 2223              		.syntax unified
 2224              	@ 198 "Drivers/FreeRTOS/portable/GCC/ARM_CM4F/portmacro.h" 1
 2225 0014 4FF05003 			mov r3, #80												
 2226 0018 83F31188 		msr basepri, r3											
 2227 001c BFF36F8F 		isb														
 2228 0020 BFF34F8F 		dsb														
 2229              	
 2230              	@ 0 "" 2
 2231              		.thumb
 2232              		.syntax unified
 2233 0024 BB61     		str	r3, [r7, #24]
 206:Drivers/FreeRTOS/portable/GCC/ARM_CM4F/portmacro.h **** 
 2234              		.loc 2 206 5
 2235 0026 00BF     		nop
 2236              	.L133:
 2237              	.LBE142:
 2238              	.LBE141:
 2239              		.loc 1 1086 5 discriminator 1
 2240 0028 FEE7     		b	.L133
 2241              	.L132:
 2242              	.LBB143:
 2243              	.LBB144:
 214:Drivers/FreeRTOS/portable/GCC/ARM_CM4F/portmacro.h ****         (
 2244              		.loc 2 214 9
 2245              		.syntax unified
 2246              	@ 214 "Drivers/FreeRTOS/portable/GCC/ARM_CM4F/portmacro.h" 1
 2247 002a EFF31182 			mrs r2, basepri											
 2248 002e 4FF05003 		mov r3, #80												
 2249 0032 83F31188 		msr basepri, r3											
 2250 0036 BFF36F8F 		isb														
 2251 003a BFF34F8F 		dsb														
 2252              	
 2253              	@ 0 "" 2
 2254              		.thumb
 2255              		.syntax unified
 2256 003e 7A61     		str	r2, [r7, #20]
 2257 0040 3B61     		str	r3, [r7, #16]
 226:Drivers/FreeRTOS/portable/GCC/ARM_CM4F/portmacro.h ****     }
 2258              		.loc 2 226 16
 2259 0042 7B69     		ldr	r3, [r7, #20]
 2260              	.LBE144:
 2261              	.LBE143:
ARM GAS  C:\Users\Benson\AppData\Local\Temp\ccHty0UJ.s 			page 64


1087:./Drivers/FreeRTOS/stream_buffer.c **** 
1088:./Drivers/FreeRTOS/stream_buffer.c ****     uxSavedInterruptStatus = ( UBaseType_t ) portSET_INTERRUPT_MASK_FROM_ISR();
 2262              		.loc 1 1088 46
 2263 0044 FB61     		str	r3, [r7, #28]
1089:./Drivers/FreeRTOS/stream_buffer.c ****     {
1090:./Drivers/FreeRTOS/stream_buffer.c ****         if( ( pxStreamBuffer )->xTaskWaitingToReceive != NULL )
 2264              		.loc 1 1090 31
 2265 0046 3B6A     		ldr	r3, [r7, #32]
 2266 0048 1B69     		ldr	r3, [r3, #16]
 2267              		.loc 1 1090 11
 2268 004a 002B     		cmp	r3, #0
 2269 004c 10D0     		beq	.L135
1091:./Drivers/FreeRTOS/stream_buffer.c ****         {
1092:./Drivers/FreeRTOS/stream_buffer.c ****             ( void ) xTaskNotifyFromISR( ( pxStreamBuffer )->xTaskWaitingToReceive,
 2270              		.loc 1 1092 22
 2271 004e 3B6A     		ldr	r3, [r7, #32]
 2272 0050 1869     		ldr	r0, [r3, #16]
 2273 0052 3B68     		ldr	r3, [r7]
 2274 0054 0193     		str	r3, [sp, #4]
 2275 0056 0023     		movs	r3, #0
 2276 0058 0093     		str	r3, [sp]
 2277 005a 0023     		movs	r3, #0
 2278 005c 0022     		movs	r2, #0
 2279 005e 0021     		movs	r1, #0
 2280 0060 FFF7FEFF 		bl	xTaskGenericNotifyFromISR
1093:./Drivers/FreeRTOS/stream_buffer.c ****                                          ( uint32_t ) 0,
1094:./Drivers/FreeRTOS/stream_buffer.c ****                                          eNoAction,
1095:./Drivers/FreeRTOS/stream_buffer.c ****                                          pxHigherPriorityTaskWoken );
1096:./Drivers/FreeRTOS/stream_buffer.c ****             ( pxStreamBuffer )->xTaskWaitingToReceive = NULL;
 2281              		.loc 1 1096 55
 2282 0064 3B6A     		ldr	r3, [r7, #32]
 2283 0066 0022     		movs	r2, #0
 2284 0068 1A61     		str	r2, [r3, #16]
1097:./Drivers/FreeRTOS/stream_buffer.c ****             xReturn = pdTRUE;
 2285              		.loc 1 1097 21
 2286 006a 0123     		movs	r3, #1
 2287 006c 7B62     		str	r3, [r7, #36]
 2288 006e 01E0     		b	.L136
 2289              	.L135:
1098:./Drivers/FreeRTOS/stream_buffer.c ****         }
1099:./Drivers/FreeRTOS/stream_buffer.c ****         else
1100:./Drivers/FreeRTOS/stream_buffer.c ****         {
1101:./Drivers/FreeRTOS/stream_buffer.c ****             xReturn = pdFALSE;
 2290              		.loc 1 1101 21
 2291 0070 0023     		movs	r3, #0
 2292 0072 7B62     		str	r3, [r7, #36]
 2293              	.L136:
 2294 0074 FB69     		ldr	r3, [r7, #28]
 2295 0076 FB60     		str	r3, [r7, #12]
 2296              	.LBB145:
 2297              	.LBB146:
 232:Drivers/FreeRTOS/portable/GCC/ARM_CM4F/portmacro.h ****         (
 2298              		.loc 2 232 9
 2299 0078 FB68     		ldr	r3, [r7, #12]
 2300              		.syntax unified
 2301              	@ 232 "Drivers/FreeRTOS/portable/GCC/ARM_CM4F/portmacro.h" 1
 2302 007a 83F31188 			msr basepri, r3	
ARM GAS  C:\Users\Benson\AppData\Local\Temp\ccHty0UJ.s 			page 65


 2303              	@ 0 "" 2
 2304              		.loc 2 236 5
 2305              		.thumb
 2306              		.syntax unified
 2307 007e 00BF     		nop
 2308              	.LBE146:
 2309              	.LBE145:
1102:./Drivers/FreeRTOS/stream_buffer.c ****         }
1103:./Drivers/FreeRTOS/stream_buffer.c ****     }
1104:./Drivers/FreeRTOS/stream_buffer.c ****     portCLEAR_INTERRUPT_MASK_FROM_ISR( uxSavedInterruptStatus );
1105:./Drivers/FreeRTOS/stream_buffer.c **** 
1106:./Drivers/FreeRTOS/stream_buffer.c ****     return xReturn;
 2310              		.loc 1 1106 12
 2311 0080 7B6A     		ldr	r3, [r7, #36]
1107:./Drivers/FreeRTOS/stream_buffer.c **** }
 2312              		.loc 1 1107 1
 2313 0082 1846     		mov	r0, r3
 2314 0084 2837     		adds	r7, r7, #40
 2315              	.LCFI81:
 2316              		.cfi_def_cfa_offset 8
 2317 0086 BD46     		mov	sp, r7
 2318              	.LCFI82:
 2319              		.cfi_def_cfa_register 13
 2320              		@ sp needed
 2321 0088 80BD     		pop	{r7, pc}
 2322              		.cfi_endproc
 2323              	.LFE20:
 2325              		.section	.text.xStreamBufferReceiveCompletedFromISR,"ax",%progbits
 2326              		.align	1
 2327              		.global	xStreamBufferReceiveCompletedFromISR
 2328              		.syntax unified
 2329              		.thumb
 2330              		.thumb_func
 2331              		.fpu fpv4-sp-d16
 2333              	xStreamBufferReceiveCompletedFromISR:
 2334              	.LFB21:
1108:./Drivers/FreeRTOS/stream_buffer.c **** /*-----------------------------------------------------------*/
1109:./Drivers/FreeRTOS/stream_buffer.c **** 
1110:./Drivers/FreeRTOS/stream_buffer.c **** BaseType_t xStreamBufferReceiveCompletedFromISR( StreamBufferHandle_t xStreamBuffer,
1111:./Drivers/FreeRTOS/stream_buffer.c ****                                                  BaseType_t * pxHigherPriorityTaskWoken )
1112:./Drivers/FreeRTOS/stream_buffer.c **** {
 2335              		.loc 1 1112 1
 2336              		.cfi_startproc
 2337              		@ args = 0, pretend = 0, frame = 40
 2338              		@ frame_needed = 1, uses_anonymous_args = 0
 2339 0000 80B5     		push	{r7, lr}
 2340              	.LCFI83:
 2341              		.cfi_def_cfa_offset 8
 2342              		.cfi_offset 7, -8
 2343              		.cfi_offset 14, -4
 2344 0002 8CB0     		sub	sp, sp, #48
 2345              	.LCFI84:
 2346              		.cfi_def_cfa_offset 56
 2347 0004 02AF     		add	r7, sp, #8
 2348              	.LCFI85:
 2349              		.cfi_def_cfa 7, 48
 2350 0006 7860     		str	r0, [r7, #4]
ARM GAS  C:\Users\Benson\AppData\Local\Temp\ccHty0UJ.s 			page 66


 2351 0008 3960     		str	r1, [r7]
1113:./Drivers/FreeRTOS/stream_buffer.c ****     StreamBuffer_t * const pxStreamBuffer = xStreamBuffer;
 2352              		.loc 1 1113 28
 2353 000a 7B68     		ldr	r3, [r7, #4]
 2354 000c 3B62     		str	r3, [r7, #32]
1114:./Drivers/FreeRTOS/stream_buffer.c ****     BaseType_t xReturn;
1115:./Drivers/FreeRTOS/stream_buffer.c ****     UBaseType_t uxSavedInterruptStatus;
1116:./Drivers/FreeRTOS/stream_buffer.c **** 
1117:./Drivers/FreeRTOS/stream_buffer.c ****     configASSERT( pxStreamBuffer );
 2355              		.loc 1 1117 5
 2356 000e 3B6A     		ldr	r3, [r7, #32]
 2357 0010 002B     		cmp	r3, #0
 2358 0012 0AD1     		bne	.L139
 2359              	.LBB147:
 2360              	.LBB148:
 198:Drivers/FreeRTOS/portable/GCC/ARM_CM4F/portmacro.h ****         (
 2361              		.loc 2 198 9
 2362              		.syntax unified
 2363              	@ 198 "Drivers/FreeRTOS/portable/GCC/ARM_CM4F/portmacro.h" 1
 2364 0014 4FF05003 			mov r3, #80												
 2365 0018 83F31188 		msr basepri, r3											
 2366 001c BFF36F8F 		isb														
 2367 0020 BFF34F8F 		dsb														
 2368              	
 2369              	@ 0 "" 2
 2370              		.thumb
 2371              		.syntax unified
 2372 0024 BB61     		str	r3, [r7, #24]
 206:Drivers/FreeRTOS/portable/GCC/ARM_CM4F/portmacro.h **** 
 2373              		.loc 2 206 5
 2374 0026 00BF     		nop
 2375              	.L140:
 2376              	.LBE148:
 2377              	.LBE147:
 2378              		.loc 1 1117 5 discriminator 1
 2379 0028 FEE7     		b	.L140
 2380              	.L139:
 2381              	.LBB149:
 2382              	.LBB150:
 214:Drivers/FreeRTOS/portable/GCC/ARM_CM4F/portmacro.h ****         (
 2383              		.loc 2 214 9
 2384              		.syntax unified
 2385              	@ 214 "Drivers/FreeRTOS/portable/GCC/ARM_CM4F/portmacro.h" 1
 2386 002a EFF31182 			mrs r2, basepri											
 2387 002e 4FF05003 		mov r3, #80												
 2388 0032 83F31188 		msr basepri, r3											
 2389 0036 BFF36F8F 		isb														
 2390 003a BFF34F8F 		dsb														
 2391              	
 2392              	@ 0 "" 2
 2393              		.thumb
 2394              		.syntax unified
 2395 003e 7A61     		str	r2, [r7, #20]
 2396 0040 3B61     		str	r3, [r7, #16]
 226:Drivers/FreeRTOS/portable/GCC/ARM_CM4F/portmacro.h ****     }
 2397              		.loc 2 226 16
 2398 0042 7B69     		ldr	r3, [r7, #20]
ARM GAS  C:\Users\Benson\AppData\Local\Temp\ccHty0UJ.s 			page 67


 2399              	.LBE150:
 2400              	.LBE149:
1118:./Drivers/FreeRTOS/stream_buffer.c **** 
1119:./Drivers/FreeRTOS/stream_buffer.c ****     uxSavedInterruptStatus = ( UBaseType_t ) portSET_INTERRUPT_MASK_FROM_ISR();
 2401              		.loc 1 1119 46
 2402 0044 FB61     		str	r3, [r7, #28]
1120:./Drivers/FreeRTOS/stream_buffer.c ****     {
1121:./Drivers/FreeRTOS/stream_buffer.c ****         if( ( pxStreamBuffer )->xTaskWaitingToSend != NULL )
 2403              		.loc 1 1121 31
 2404 0046 3B6A     		ldr	r3, [r7, #32]
 2405 0048 5B69     		ldr	r3, [r3, #20]
 2406              		.loc 1 1121 11
 2407 004a 002B     		cmp	r3, #0
 2408 004c 10D0     		beq	.L142
1122:./Drivers/FreeRTOS/stream_buffer.c ****         {
1123:./Drivers/FreeRTOS/stream_buffer.c ****             ( void ) xTaskNotifyFromISR( ( pxStreamBuffer )->xTaskWaitingToSend,
 2409              		.loc 1 1123 22
 2410 004e 3B6A     		ldr	r3, [r7, #32]
 2411 0050 5869     		ldr	r0, [r3, #20]
 2412 0052 3B68     		ldr	r3, [r7]
 2413 0054 0193     		str	r3, [sp, #4]
 2414 0056 0023     		movs	r3, #0
 2415 0058 0093     		str	r3, [sp]
 2416 005a 0023     		movs	r3, #0
 2417 005c 0022     		movs	r2, #0
 2418 005e 0021     		movs	r1, #0
 2419 0060 FFF7FEFF 		bl	xTaskGenericNotifyFromISR
1124:./Drivers/FreeRTOS/stream_buffer.c ****                                          ( uint32_t ) 0,
1125:./Drivers/FreeRTOS/stream_buffer.c ****                                          eNoAction,
1126:./Drivers/FreeRTOS/stream_buffer.c ****                                          pxHigherPriorityTaskWoken );
1127:./Drivers/FreeRTOS/stream_buffer.c ****             ( pxStreamBuffer )->xTaskWaitingToSend = NULL;
 2420              		.loc 1 1127 52
 2421 0064 3B6A     		ldr	r3, [r7, #32]
 2422 0066 0022     		movs	r2, #0
 2423 0068 5A61     		str	r2, [r3, #20]
1128:./Drivers/FreeRTOS/stream_buffer.c ****             xReturn = pdTRUE;
 2424              		.loc 1 1128 21
 2425 006a 0123     		movs	r3, #1
 2426 006c 7B62     		str	r3, [r7, #36]
 2427 006e 01E0     		b	.L143
 2428              	.L142:
1129:./Drivers/FreeRTOS/stream_buffer.c ****         }
1130:./Drivers/FreeRTOS/stream_buffer.c ****         else
1131:./Drivers/FreeRTOS/stream_buffer.c ****         {
1132:./Drivers/FreeRTOS/stream_buffer.c ****             xReturn = pdFALSE;
 2429              		.loc 1 1132 21
 2430 0070 0023     		movs	r3, #0
 2431 0072 7B62     		str	r3, [r7, #36]
 2432              	.L143:
 2433 0074 FB69     		ldr	r3, [r7, #28]
 2434 0076 FB60     		str	r3, [r7, #12]
 2435              	.LBB151:
 2436              	.LBB152:
 232:Drivers/FreeRTOS/portable/GCC/ARM_CM4F/portmacro.h ****         (
 2437              		.loc 2 232 9
 2438 0078 FB68     		ldr	r3, [r7, #12]
 2439              		.syntax unified
ARM GAS  C:\Users\Benson\AppData\Local\Temp\ccHty0UJ.s 			page 68


 2440              	@ 232 "Drivers/FreeRTOS/portable/GCC/ARM_CM4F/portmacro.h" 1
 2441 007a 83F31188 			msr basepri, r3	
 2442              	@ 0 "" 2
 2443              		.loc 2 236 5
 2444              		.thumb
 2445              		.syntax unified
 2446 007e 00BF     		nop
 2447              	.LBE152:
 2448              	.LBE151:
1133:./Drivers/FreeRTOS/stream_buffer.c ****         }
1134:./Drivers/FreeRTOS/stream_buffer.c ****     }
1135:./Drivers/FreeRTOS/stream_buffer.c ****     portCLEAR_INTERRUPT_MASK_FROM_ISR( uxSavedInterruptStatus );
1136:./Drivers/FreeRTOS/stream_buffer.c **** 
1137:./Drivers/FreeRTOS/stream_buffer.c ****     return xReturn;
 2449              		.loc 1 1137 12
 2450 0080 7B6A     		ldr	r3, [r7, #36]
1138:./Drivers/FreeRTOS/stream_buffer.c **** }
 2451              		.loc 1 1138 1
 2452 0082 1846     		mov	r0, r3
 2453 0084 2837     		adds	r7, r7, #40
 2454              	.LCFI86:
 2455              		.cfi_def_cfa_offset 8
 2456 0086 BD46     		mov	sp, r7
 2457              	.LCFI87:
 2458              		.cfi_def_cfa_register 13
 2459              		@ sp needed
 2460 0088 80BD     		pop	{r7, pc}
 2461              		.cfi_endproc
 2462              	.LFE21:
 2464              		.section	.text.prvWriteBytesToBuffer,"ax",%progbits
 2465              		.align	1
 2466              		.syntax unified
 2467              		.thumb
 2468              		.thumb_func
 2469              		.fpu fpv4-sp-d16
 2471              	prvWriteBytesToBuffer:
 2472              	.LFB22:
1139:./Drivers/FreeRTOS/stream_buffer.c **** /*-----------------------------------------------------------*/
1140:./Drivers/FreeRTOS/stream_buffer.c **** 
1141:./Drivers/FreeRTOS/stream_buffer.c **** static size_t prvWriteBytesToBuffer( StreamBuffer_t * const pxStreamBuffer,
1142:./Drivers/FreeRTOS/stream_buffer.c ****                                      const uint8_t * pucData,
1143:./Drivers/FreeRTOS/stream_buffer.c ****                                      size_t xCount,
1144:./Drivers/FreeRTOS/stream_buffer.c ****                                      size_t xHead )
1145:./Drivers/FreeRTOS/stream_buffer.c **** {
 2473              		.loc 1 1145 1
 2474              		.cfi_startproc
 2475              		@ args = 0, pretend = 0, frame = 32
 2476              		@ frame_needed = 1, uses_anonymous_args = 0
 2477 0000 80B5     		push	{r7, lr}
 2478              	.LCFI88:
 2479              		.cfi_def_cfa_offset 8
 2480              		.cfi_offset 7, -8
 2481              		.cfi_offset 14, -4
 2482 0002 88B0     		sub	sp, sp, #32
 2483              	.LCFI89:
 2484              		.cfi_def_cfa_offset 40
 2485 0004 00AF     		add	r7, sp, #0
ARM GAS  C:\Users\Benson\AppData\Local\Temp\ccHty0UJ.s 			page 69


 2486              	.LCFI90:
 2487              		.cfi_def_cfa_register 7
 2488 0006 F860     		str	r0, [r7, #12]
 2489 0008 B960     		str	r1, [r7, #8]
 2490 000a 7A60     		str	r2, [r7, #4]
 2491 000c 3B60     		str	r3, [r7]
1146:./Drivers/FreeRTOS/stream_buffer.c ****     size_t xFirstLength;
1147:./Drivers/FreeRTOS/stream_buffer.c **** 
1148:./Drivers/FreeRTOS/stream_buffer.c ****     configASSERT( xCount > ( size_t ) 0 );
 2492              		.loc 1 1148 5
 2493 000e 7B68     		ldr	r3, [r7, #4]
 2494 0010 002B     		cmp	r3, #0
 2495 0012 0AD1     		bne	.L146
 2496              	.LBB153:
 2497              	.LBB154:
 198:Drivers/FreeRTOS/portable/GCC/ARM_CM4F/portmacro.h ****         (
 2498              		.loc 2 198 9
 2499              		.syntax unified
 2500              	@ 198 "Drivers/FreeRTOS/portable/GCC/ARM_CM4F/portmacro.h" 1
 2501 0014 4FF05003 			mov r3, #80												
 2502 0018 83F31188 		msr basepri, r3											
 2503 001c BFF36F8F 		isb														
 2504 0020 BFF34F8F 		dsb														
 2505              	
 2506              	@ 0 "" 2
 2507              		.thumb
 2508              		.syntax unified
 2509 0024 BB61     		str	r3, [r7, #24]
 206:Drivers/FreeRTOS/portable/GCC/ARM_CM4F/portmacro.h **** 
 2510              		.loc 2 206 5
 2511 0026 00BF     		nop
 2512              	.L147:
 2513              	.LBE154:
 2514              	.LBE153:
 2515              		.loc 1 1148 5 discriminator 1
 2516 0028 FEE7     		b	.L147
 2517              	.L146:
1149:./Drivers/FreeRTOS/stream_buffer.c **** 
1150:./Drivers/FreeRTOS/stream_buffer.c ****     /* Calculate the number of bytes that can be added in the first write -
1151:./Drivers/FreeRTOS/stream_buffer.c ****      * which may be less than the total number of bytes that need to be added if
1152:./Drivers/FreeRTOS/stream_buffer.c ****      * the buffer will wrap back to the beginning. */
1153:./Drivers/FreeRTOS/stream_buffer.c ****     xFirstLength = configMIN( pxStreamBuffer->xLength - xHead, xCount );
 2518              		.loc 1 1153 20
 2519 002a FB68     		ldr	r3, [r7, #12]
 2520 002c 9A68     		ldr	r2, [r3, #8]
 2521 002e 3B68     		ldr	r3, [r7]
 2522 0030 D31A     		subs	r3, r2, r3
 2523              		.loc 1 1153 18
 2524 0032 7A68     		ldr	r2, [r7, #4]
 2525 0034 9342     		cmp	r3, r2
 2526 0036 28BF     		it	cs
 2527 0038 1346     		movcs	r3, r2
 2528 003a FB61     		str	r3, [r7, #28]
1154:./Drivers/FreeRTOS/stream_buffer.c **** 
1155:./Drivers/FreeRTOS/stream_buffer.c ****     /* Write as many bytes as can be written in the first write. */
1156:./Drivers/FreeRTOS/stream_buffer.c ****     configASSERT( ( xHead + xFirstLength ) <= pxStreamBuffer->xLength );
 2529              		.loc 1 1156 5
ARM GAS  C:\Users\Benson\AppData\Local\Temp\ccHty0UJ.s 			page 70


 2530 003c 3A68     		ldr	r2, [r7]
 2531 003e FB69     		ldr	r3, [r7, #28]
 2532 0040 1A44     		add	r2, r2, r3
 2533 0042 FB68     		ldr	r3, [r7, #12]
 2534 0044 9B68     		ldr	r3, [r3, #8]
 2535 0046 9A42     		cmp	r2, r3
 2536 0048 0AD9     		bls	.L148
 2537              	.LBB155:
 2538              	.LBB156:
 198:Drivers/FreeRTOS/portable/GCC/ARM_CM4F/portmacro.h ****         (
 2539              		.loc 2 198 9
 2540              		.syntax unified
 2541              	@ 198 "Drivers/FreeRTOS/portable/GCC/ARM_CM4F/portmacro.h" 1
 2542 004a 4FF05003 			mov r3, #80												
 2543 004e 83F31188 		msr basepri, r3											
 2544 0052 BFF36F8F 		isb														
 2545 0056 BFF34F8F 		dsb														
 2546              	
 2547              	@ 0 "" 2
 2548              		.thumb
 2549              		.syntax unified
 2550 005a 7B61     		str	r3, [r7, #20]
 206:Drivers/FreeRTOS/portable/GCC/ARM_CM4F/portmacro.h **** 
 2551              		.loc 2 206 5
 2552 005c 00BF     		nop
 2553              	.L149:
 2554              	.LBE156:
 2555              	.LBE155:
 2556              		.loc 1 1156 5 discriminator 2
 2557 005e FEE7     		b	.L149
 2558              	.L148:
1157:./Drivers/FreeRTOS/stream_buffer.c ****     ( void ) memcpy( ( void * ) ( &( pxStreamBuffer->pucBuffer[ xHead ] ) ), ( const void * ) pucDa
 2559              		.loc 1 1157 52
 2560 0060 FB68     		ldr	r3, [r7, #12]
 2561 0062 9A69     		ldr	r2, [r3, #24]
 2562              		.loc 1 1157 35
 2563 0064 3B68     		ldr	r3, [r7]
 2564 0066 1344     		add	r3, r3, r2
 2565              		.loc 1 1157 14
 2566 0068 FA69     		ldr	r2, [r7, #28]
 2567 006a B968     		ldr	r1, [r7, #8]
 2568 006c 1846     		mov	r0, r3
 2569 006e FFF7FEFF 		bl	memcpy
1158:./Drivers/FreeRTOS/stream_buffer.c **** 
1159:./Drivers/FreeRTOS/stream_buffer.c ****     /* If the number of bytes written was less than the number that could be
1160:./Drivers/FreeRTOS/stream_buffer.c ****      * written in the first write... */
1161:./Drivers/FreeRTOS/stream_buffer.c ****     if( xCount > xFirstLength )
 2570              		.loc 1 1161 7
 2571 0072 7A68     		ldr	r2, [r7, #4]
 2572 0074 FB69     		ldr	r3, [r7, #28]
 2573 0076 9A42     		cmp	r2, r3
 2574 0078 1CD9     		bls	.L150
1162:./Drivers/FreeRTOS/stream_buffer.c ****     {
1163:./Drivers/FreeRTOS/stream_buffer.c ****         /* ...then write the remaining bytes to the start of the buffer. */
1164:./Drivers/FreeRTOS/stream_buffer.c ****         configASSERT( ( xCount - xFirstLength ) <= pxStreamBuffer->xLength );
 2575              		.loc 1 1164 9
 2576 007a 7A68     		ldr	r2, [r7, #4]
ARM GAS  C:\Users\Benson\AppData\Local\Temp\ccHty0UJ.s 			page 71


 2577 007c FB69     		ldr	r3, [r7, #28]
 2578 007e D21A     		subs	r2, r2, r3
 2579 0080 FB68     		ldr	r3, [r7, #12]
 2580 0082 9B68     		ldr	r3, [r3, #8]
 2581 0084 9A42     		cmp	r2, r3
 2582 0086 0AD9     		bls	.L151
 2583              	.LBB157:
 2584              	.LBB158:
 198:Drivers/FreeRTOS/portable/GCC/ARM_CM4F/portmacro.h ****         (
 2585              		.loc 2 198 9
 2586              		.syntax unified
 2587              	@ 198 "Drivers/FreeRTOS/portable/GCC/ARM_CM4F/portmacro.h" 1
 2588 0088 4FF05003 			mov r3, #80												
 2589 008c 83F31188 		msr basepri, r3											
 2590 0090 BFF36F8F 		isb														
 2591 0094 BFF34F8F 		dsb														
 2592              	
 2593              	@ 0 "" 2
 2594              		.thumb
 2595              		.syntax unified
 2596 0098 3B61     		str	r3, [r7, #16]
 206:Drivers/FreeRTOS/portable/GCC/ARM_CM4F/portmacro.h **** 
 2597              		.loc 2 206 5
 2598 009a 00BF     		nop
 2599              	.L152:
 2600              	.LBE158:
 2601              	.LBE157:
 2602              		.loc 1 1164 9 discriminator 3
 2603 009c FEE7     		b	.L152
 2604              	.L151:
1165:./Drivers/FreeRTOS/stream_buffer.c ****         ( void ) memcpy( ( void * ) pxStreamBuffer->pucBuffer, ( const void * ) &( pucData[ xFirstL
 2605              		.loc 1 1165 51
 2606 009e FB68     		ldr	r3, [r7, #12]
 2607 00a0 9869     		ldr	r0, [r3, #24]
 2608              		.loc 1 1165 81
 2609 00a2 BA68     		ldr	r2, [r7, #8]
 2610 00a4 FB69     		ldr	r3, [r7, #28]
 2611 00a6 D118     		adds	r1, r2, r3
 2612              		.loc 1 1165 18
 2613 00a8 7A68     		ldr	r2, [r7, #4]
 2614 00aa FB69     		ldr	r3, [r7, #28]
 2615 00ac D31A     		subs	r3, r2, r3
 2616 00ae 1A46     		mov	r2, r3
 2617 00b0 FFF7FEFF 		bl	memcpy
 2618              	.L150:
1166:./Drivers/FreeRTOS/stream_buffer.c ****     }
1167:./Drivers/FreeRTOS/stream_buffer.c ****     else
1168:./Drivers/FreeRTOS/stream_buffer.c ****     {
1169:./Drivers/FreeRTOS/stream_buffer.c ****         mtCOVERAGE_TEST_MARKER();
1170:./Drivers/FreeRTOS/stream_buffer.c ****     }
1171:./Drivers/FreeRTOS/stream_buffer.c **** 
1172:./Drivers/FreeRTOS/stream_buffer.c ****     xHead += xCount;
 2619              		.loc 1 1172 11
 2620 00b4 3A68     		ldr	r2, [r7]
 2621 00b6 7B68     		ldr	r3, [r7, #4]
 2622 00b8 1344     		add	r3, r3, r2
 2623 00ba 3B60     		str	r3, [r7]
ARM GAS  C:\Users\Benson\AppData\Local\Temp\ccHty0UJ.s 			page 72


1173:./Drivers/FreeRTOS/stream_buffer.c **** 
1174:./Drivers/FreeRTOS/stream_buffer.c ****     if( xHead >= pxStreamBuffer->xLength )
 2624              		.loc 1 1174 32
 2625 00bc FB68     		ldr	r3, [r7, #12]
 2626 00be 9B68     		ldr	r3, [r3, #8]
 2627              		.loc 1 1174 7
 2628 00c0 3A68     		ldr	r2, [r7]
 2629 00c2 9A42     		cmp	r2, r3
 2630 00c4 04D3     		bcc	.L153
1175:./Drivers/FreeRTOS/stream_buffer.c ****     {
1176:./Drivers/FreeRTOS/stream_buffer.c ****         xHead -= pxStreamBuffer->xLength;
 2631              		.loc 1 1176 32
 2632 00c6 FB68     		ldr	r3, [r7, #12]
 2633 00c8 9B68     		ldr	r3, [r3, #8]
 2634              		.loc 1 1176 15
 2635 00ca 3A68     		ldr	r2, [r7]
 2636 00cc D31A     		subs	r3, r2, r3
 2637 00ce 3B60     		str	r3, [r7]
 2638              	.L153:
1177:./Drivers/FreeRTOS/stream_buffer.c ****     }
1178:./Drivers/FreeRTOS/stream_buffer.c ****     else
1179:./Drivers/FreeRTOS/stream_buffer.c ****     {
1180:./Drivers/FreeRTOS/stream_buffer.c ****         mtCOVERAGE_TEST_MARKER();
1181:./Drivers/FreeRTOS/stream_buffer.c ****     }
1182:./Drivers/FreeRTOS/stream_buffer.c **** 
1183:./Drivers/FreeRTOS/stream_buffer.c ****     return xHead;
 2639              		.loc 1 1183 12
 2640 00d0 3B68     		ldr	r3, [r7]
1184:./Drivers/FreeRTOS/stream_buffer.c **** }
 2641              		.loc 1 1184 1
 2642 00d2 1846     		mov	r0, r3
 2643 00d4 2037     		adds	r7, r7, #32
 2644              	.LCFI91:
 2645              		.cfi_def_cfa_offset 8
 2646 00d6 BD46     		mov	sp, r7
 2647              	.LCFI92:
 2648              		.cfi_def_cfa_register 13
 2649              		@ sp needed
 2650 00d8 80BD     		pop	{r7, pc}
 2651              		.cfi_endproc
 2652              	.LFE22:
 2654              		.section	.text.prvReadBytesFromBuffer,"ax",%progbits
 2655              		.align	1
 2656              		.syntax unified
 2657              		.thumb
 2658              		.thumb_func
 2659              		.fpu fpv4-sp-d16
 2661              	prvReadBytesFromBuffer:
 2662              	.LFB23:
1185:./Drivers/FreeRTOS/stream_buffer.c **** /*-----------------------------------------------------------*/
1186:./Drivers/FreeRTOS/stream_buffer.c **** 
1187:./Drivers/FreeRTOS/stream_buffer.c **** static size_t prvReadBytesFromBuffer( StreamBuffer_t * pxStreamBuffer,
1188:./Drivers/FreeRTOS/stream_buffer.c ****                                       uint8_t * pucData,
1189:./Drivers/FreeRTOS/stream_buffer.c ****                                       size_t xCount,
1190:./Drivers/FreeRTOS/stream_buffer.c ****                                       size_t xTail )
1191:./Drivers/FreeRTOS/stream_buffer.c **** {
 2663              		.loc 1 1191 1
ARM GAS  C:\Users\Benson\AppData\Local\Temp\ccHty0UJ.s 			page 73


 2664              		.cfi_startproc
 2665              		@ args = 0, pretend = 0, frame = 32
 2666              		@ frame_needed = 1, uses_anonymous_args = 0
 2667 0000 80B5     		push	{r7, lr}
 2668              	.LCFI93:
 2669              		.cfi_def_cfa_offset 8
 2670              		.cfi_offset 7, -8
 2671              		.cfi_offset 14, -4
 2672 0002 88B0     		sub	sp, sp, #32
 2673              	.LCFI94:
 2674              		.cfi_def_cfa_offset 40
 2675 0004 00AF     		add	r7, sp, #0
 2676              	.LCFI95:
 2677              		.cfi_def_cfa_register 7
 2678 0006 F860     		str	r0, [r7, #12]
 2679 0008 B960     		str	r1, [r7, #8]
 2680 000a 7A60     		str	r2, [r7, #4]
 2681 000c 3B60     		str	r3, [r7]
1192:./Drivers/FreeRTOS/stream_buffer.c ****     size_t xFirstLength;
1193:./Drivers/FreeRTOS/stream_buffer.c **** 
1194:./Drivers/FreeRTOS/stream_buffer.c ****     configASSERT( xCount != ( size_t ) 0 );
 2682              		.loc 1 1194 5
 2683 000e 7B68     		ldr	r3, [r7, #4]
 2684 0010 002B     		cmp	r3, #0
 2685 0012 0AD1     		bne	.L156
 2686              	.LBB159:
 2687              	.LBB160:
 198:Drivers/FreeRTOS/portable/GCC/ARM_CM4F/portmacro.h ****         (
 2688              		.loc 2 198 9
 2689              		.syntax unified
 2690              	@ 198 "Drivers/FreeRTOS/portable/GCC/ARM_CM4F/portmacro.h" 1
 2691 0014 4FF05003 			mov r3, #80												
 2692 0018 83F31188 		msr basepri, r3											
 2693 001c BFF36F8F 		isb														
 2694 0020 BFF34F8F 		dsb														
 2695              	
 2696              	@ 0 "" 2
 2697              		.thumb
 2698              		.syntax unified
 2699 0024 BB61     		str	r3, [r7, #24]
 206:Drivers/FreeRTOS/portable/GCC/ARM_CM4F/portmacro.h **** 
 2700              		.loc 2 206 5
 2701 0026 00BF     		nop
 2702              	.L157:
 2703              	.LBE160:
 2704              	.LBE159:
 2705              		.loc 1 1194 5 discriminator 1
 2706 0028 FEE7     		b	.L157
 2707              	.L156:
1195:./Drivers/FreeRTOS/stream_buffer.c **** 
1196:./Drivers/FreeRTOS/stream_buffer.c ****     /* Calculate the number of bytes that can be read - which may be
1197:./Drivers/FreeRTOS/stream_buffer.c ****      * less than the number wanted if the data wraps around to the start of
1198:./Drivers/FreeRTOS/stream_buffer.c ****      * the buffer. */
1199:./Drivers/FreeRTOS/stream_buffer.c ****     xFirstLength = configMIN( pxStreamBuffer->xLength - xTail, xCount );
 2708              		.loc 1 1199 20
 2709 002a FB68     		ldr	r3, [r7, #12]
 2710 002c 9A68     		ldr	r2, [r3, #8]
ARM GAS  C:\Users\Benson\AppData\Local\Temp\ccHty0UJ.s 			page 74


 2711 002e 3B68     		ldr	r3, [r7]
 2712 0030 D31A     		subs	r3, r2, r3
 2713              		.loc 1 1199 18
 2714 0032 7A68     		ldr	r2, [r7, #4]
 2715 0034 9342     		cmp	r3, r2
 2716 0036 28BF     		it	cs
 2717 0038 1346     		movcs	r3, r2
 2718 003a FB61     		str	r3, [r7, #28]
1200:./Drivers/FreeRTOS/stream_buffer.c **** 
1201:./Drivers/FreeRTOS/stream_buffer.c ****     /* Obtain the number of bytes it is possible to obtain in the first
1202:./Drivers/FreeRTOS/stream_buffer.c ****      * read.  Asserts check bounds of read and write. */
1203:./Drivers/FreeRTOS/stream_buffer.c ****     configASSERT( xFirstLength <= xCount );
 2719              		.loc 1 1203 5
 2720 003c FA69     		ldr	r2, [r7, #28]
 2721 003e 7B68     		ldr	r3, [r7, #4]
 2722 0040 9A42     		cmp	r2, r3
 2723 0042 0AD9     		bls	.L158
 2724              	.LBB161:
 2725              	.LBB162:
 198:Drivers/FreeRTOS/portable/GCC/ARM_CM4F/portmacro.h ****         (
 2726              		.loc 2 198 9
 2727              		.syntax unified
 2728              	@ 198 "Drivers/FreeRTOS/portable/GCC/ARM_CM4F/portmacro.h" 1
 2729 0044 4FF05003 			mov r3, #80												
 2730 0048 83F31188 		msr basepri, r3											
 2731 004c BFF36F8F 		isb														
 2732 0050 BFF34F8F 		dsb														
 2733              	
 2734              	@ 0 "" 2
 2735              		.thumb
 2736              		.syntax unified
 2737 0054 7B61     		str	r3, [r7, #20]
 206:Drivers/FreeRTOS/portable/GCC/ARM_CM4F/portmacro.h **** 
 2738              		.loc 2 206 5
 2739 0056 00BF     		nop
 2740              	.L159:
 2741              	.LBE162:
 2742              	.LBE161:
 2743              		.loc 1 1203 5 discriminator 2
 2744 0058 FEE7     		b	.L159
 2745              	.L158:
1204:./Drivers/FreeRTOS/stream_buffer.c ****     configASSERT( ( xTail + xFirstLength ) <= pxStreamBuffer->xLength );
 2746              		.loc 1 1204 5
 2747 005a 3A68     		ldr	r2, [r7]
 2748 005c FB69     		ldr	r3, [r7, #28]
 2749 005e 1A44     		add	r2, r2, r3
 2750 0060 FB68     		ldr	r3, [r7, #12]
 2751 0062 9B68     		ldr	r3, [r3, #8]
 2752 0064 9A42     		cmp	r2, r3
 2753 0066 0AD9     		bls	.L160
 2754              	.LBB163:
 2755              	.LBB164:
 198:Drivers/FreeRTOS/portable/GCC/ARM_CM4F/portmacro.h ****         (
 2756              		.loc 2 198 9
 2757              		.syntax unified
 2758              	@ 198 "Drivers/FreeRTOS/portable/GCC/ARM_CM4F/portmacro.h" 1
 2759 0068 4FF05003 			mov r3, #80												
ARM GAS  C:\Users\Benson\AppData\Local\Temp\ccHty0UJ.s 			page 75


 2760 006c 83F31188 		msr basepri, r3											
 2761 0070 BFF36F8F 		isb														
 2762 0074 BFF34F8F 		dsb														
 2763              	
 2764              	@ 0 "" 2
 2765              		.thumb
 2766              		.syntax unified
 2767 0078 3B61     		str	r3, [r7, #16]
 206:Drivers/FreeRTOS/portable/GCC/ARM_CM4F/portmacro.h **** 
 2768              		.loc 2 206 5
 2769 007a 00BF     		nop
 2770              	.L161:
 2771              	.LBE164:
 2772              	.LBE163:
 2773              		.loc 1 1204 5 discriminator 3
 2774 007c FEE7     		b	.L161
 2775              	.L160:
1205:./Drivers/FreeRTOS/stream_buffer.c ****     ( void ) memcpy( ( void * ) pucData, ( const void * ) &( pxStreamBuffer->pucBuffer[ xTail ] ), 
 2776              		.loc 1 1205 76
 2777 007e FB68     		ldr	r3, [r7, #12]
 2778 0080 9A69     		ldr	r2, [r3, #24]
 2779              		.loc 1 1205 59
 2780 0082 3B68     		ldr	r3, [r7]
 2781 0084 1344     		add	r3, r3, r2
 2782              		.loc 1 1205 14
 2783 0086 FA69     		ldr	r2, [r7, #28]
 2784 0088 1946     		mov	r1, r3
 2785 008a B868     		ldr	r0, [r7, #8]
 2786 008c FFF7FEFF 		bl	memcpy
1206:./Drivers/FreeRTOS/stream_buffer.c **** 
1207:./Drivers/FreeRTOS/stream_buffer.c ****     /* If the total number of wanted bytes is greater than the number
1208:./Drivers/FreeRTOS/stream_buffer.c ****      * that could be read in the first read... */
1209:./Drivers/FreeRTOS/stream_buffer.c ****     if( xCount > xFirstLength )
 2787              		.loc 1 1209 7
 2788 0090 7A68     		ldr	r2, [r7, #4]
 2789 0092 FB69     		ldr	r3, [r7, #28]
 2790 0094 9A42     		cmp	r2, r3
 2791 0096 0AD9     		bls	.L162
1210:./Drivers/FreeRTOS/stream_buffer.c ****     {
1211:./Drivers/FreeRTOS/stream_buffer.c ****         /* ...then read the remaining bytes from the start of the buffer. */
1212:./Drivers/FreeRTOS/stream_buffer.c ****         ( void ) memcpy( ( void * ) &( pucData[ xFirstLength ] ), ( void * ) ( pxStreamBuffer->pucB
 2792              		.loc 1 1212 37
 2793 0098 BA68     		ldr	r2, [r7, #8]
 2794 009a FB69     		ldr	r3, [r7, #28]
 2795 009c D018     		adds	r0, r2, r3
 2796              		.loc 1 1212 94
 2797 009e FB68     		ldr	r3, [r7, #12]
 2798 00a0 9969     		ldr	r1, [r3, #24]
 2799              		.loc 1 1212 18
 2800 00a2 7A68     		ldr	r2, [r7, #4]
 2801 00a4 FB69     		ldr	r3, [r7, #28]
 2802 00a6 D31A     		subs	r3, r2, r3
 2803 00a8 1A46     		mov	r2, r3
 2804 00aa FFF7FEFF 		bl	memcpy
 2805              	.L162:
1213:./Drivers/FreeRTOS/stream_buffer.c ****     }
1214:./Drivers/FreeRTOS/stream_buffer.c ****     else
ARM GAS  C:\Users\Benson\AppData\Local\Temp\ccHty0UJ.s 			page 76


1215:./Drivers/FreeRTOS/stream_buffer.c ****     {
1216:./Drivers/FreeRTOS/stream_buffer.c ****         mtCOVERAGE_TEST_MARKER();
1217:./Drivers/FreeRTOS/stream_buffer.c ****     }
1218:./Drivers/FreeRTOS/stream_buffer.c **** 
1219:./Drivers/FreeRTOS/stream_buffer.c ****     /* Move the tail pointer to effectively remove the data read from the buffer. */
1220:./Drivers/FreeRTOS/stream_buffer.c ****     xTail += xCount;
 2806              		.loc 1 1220 11
 2807 00ae 3A68     		ldr	r2, [r7]
 2808 00b0 7B68     		ldr	r3, [r7, #4]
 2809 00b2 1344     		add	r3, r3, r2
 2810 00b4 3B60     		str	r3, [r7]
1221:./Drivers/FreeRTOS/stream_buffer.c **** 
1222:./Drivers/FreeRTOS/stream_buffer.c ****     if( xTail >= pxStreamBuffer->xLength )
 2811              		.loc 1 1222 32
 2812 00b6 FB68     		ldr	r3, [r7, #12]
 2813 00b8 9B68     		ldr	r3, [r3, #8]
 2814              		.loc 1 1222 7
 2815 00ba 3A68     		ldr	r2, [r7]
 2816 00bc 9A42     		cmp	r2, r3
 2817 00be 04D3     		bcc	.L163
1223:./Drivers/FreeRTOS/stream_buffer.c ****     {
1224:./Drivers/FreeRTOS/stream_buffer.c ****         xTail -= pxStreamBuffer->xLength;
 2818              		.loc 1 1224 32
 2819 00c0 FB68     		ldr	r3, [r7, #12]
 2820 00c2 9B68     		ldr	r3, [r3, #8]
 2821              		.loc 1 1224 15
 2822 00c4 3A68     		ldr	r2, [r7]
 2823 00c6 D31A     		subs	r3, r2, r3
 2824 00c8 3B60     		str	r3, [r7]
 2825              	.L163:
1225:./Drivers/FreeRTOS/stream_buffer.c ****     }
1226:./Drivers/FreeRTOS/stream_buffer.c **** 
1227:./Drivers/FreeRTOS/stream_buffer.c ****     return xTail;
 2826              		.loc 1 1227 12
 2827 00ca 3B68     		ldr	r3, [r7]
1228:./Drivers/FreeRTOS/stream_buffer.c **** }
 2828              		.loc 1 1228 1
 2829 00cc 1846     		mov	r0, r3
 2830 00ce 2037     		adds	r7, r7, #32
 2831              	.LCFI96:
 2832              		.cfi_def_cfa_offset 8
 2833 00d0 BD46     		mov	sp, r7
 2834              	.LCFI97:
 2835              		.cfi_def_cfa_register 13
 2836              		@ sp needed
 2837 00d2 80BD     		pop	{r7, pc}
 2838              		.cfi_endproc
 2839              	.LFE23:
 2841              		.section	.text.prvBytesInBuffer,"ax",%progbits
 2842              		.align	1
 2843              		.syntax unified
 2844              		.thumb
 2845              		.thumb_func
 2846              		.fpu fpv4-sp-d16
 2848              	prvBytesInBuffer:
 2849              	.LFB24:
1229:./Drivers/FreeRTOS/stream_buffer.c **** /*-----------------------------------------------------------*/
ARM GAS  C:\Users\Benson\AppData\Local\Temp\ccHty0UJ.s 			page 77


1230:./Drivers/FreeRTOS/stream_buffer.c **** 
1231:./Drivers/FreeRTOS/stream_buffer.c **** static size_t prvBytesInBuffer( const StreamBuffer_t * const pxStreamBuffer )
1232:./Drivers/FreeRTOS/stream_buffer.c **** {
 2850              		.loc 1 1232 1
 2851              		.cfi_startproc
 2852              		@ args = 0, pretend = 0, frame = 16
 2853              		@ frame_needed = 1, uses_anonymous_args = 0
 2854              		@ link register save eliminated.
 2855 0000 80B4     		push	{r7}
 2856              	.LCFI98:
 2857              		.cfi_def_cfa_offset 4
 2858              		.cfi_offset 7, -4
 2859 0002 85B0     		sub	sp, sp, #20
 2860              	.LCFI99:
 2861              		.cfi_def_cfa_offset 24
 2862 0004 00AF     		add	r7, sp, #0
 2863              	.LCFI100:
 2864              		.cfi_def_cfa_register 7
 2865 0006 7860     		str	r0, [r7, #4]
1233:./Drivers/FreeRTOS/stream_buffer.c **** /* Returns the distance between xTail and xHead. */
1234:./Drivers/FreeRTOS/stream_buffer.c ****     size_t xCount;
1235:./Drivers/FreeRTOS/stream_buffer.c **** 
1236:./Drivers/FreeRTOS/stream_buffer.c ****     xCount = pxStreamBuffer->xLength + pxStreamBuffer->xHead;
 2866              		.loc 1 1236 28
 2867 0008 7B68     		ldr	r3, [r7, #4]
 2868 000a 9A68     		ldr	r2, [r3, #8]
 2869              		.loc 1 1236 54
 2870 000c 7B68     		ldr	r3, [r7, #4]
 2871 000e 5B68     		ldr	r3, [r3, #4]
 2872              		.loc 1 1236 12
 2873 0010 1344     		add	r3, r3, r2
 2874 0012 FB60     		str	r3, [r7, #12]
1237:./Drivers/FreeRTOS/stream_buffer.c ****     xCount -= pxStreamBuffer->xTail;
 2875              		.loc 1 1237 29
 2876 0014 7B68     		ldr	r3, [r7, #4]
 2877 0016 1B68     		ldr	r3, [r3]
 2878              		.loc 1 1237 12
 2879 0018 FA68     		ldr	r2, [r7, #12]
 2880 001a D31A     		subs	r3, r2, r3
 2881 001c FB60     		str	r3, [r7, #12]
1238:./Drivers/FreeRTOS/stream_buffer.c **** 
1239:./Drivers/FreeRTOS/stream_buffer.c ****     if( xCount >= pxStreamBuffer->xLength )
 2882              		.loc 1 1239 33
 2883 001e 7B68     		ldr	r3, [r7, #4]
 2884 0020 9B68     		ldr	r3, [r3, #8]
 2885              		.loc 1 1239 7
 2886 0022 FA68     		ldr	r2, [r7, #12]
 2887 0024 9A42     		cmp	r2, r3
 2888 0026 04D3     		bcc	.L166
1240:./Drivers/FreeRTOS/stream_buffer.c ****     {
1241:./Drivers/FreeRTOS/stream_buffer.c ****         xCount -= pxStreamBuffer->xLength;
 2889              		.loc 1 1241 33
 2890 0028 7B68     		ldr	r3, [r7, #4]
 2891 002a 9B68     		ldr	r3, [r3, #8]
 2892              		.loc 1 1241 16
 2893 002c FA68     		ldr	r2, [r7, #12]
 2894 002e D31A     		subs	r3, r2, r3
ARM GAS  C:\Users\Benson\AppData\Local\Temp\ccHty0UJ.s 			page 78


 2895 0030 FB60     		str	r3, [r7, #12]
 2896              	.L166:
1242:./Drivers/FreeRTOS/stream_buffer.c ****     }
1243:./Drivers/FreeRTOS/stream_buffer.c ****     else
1244:./Drivers/FreeRTOS/stream_buffer.c ****     {
1245:./Drivers/FreeRTOS/stream_buffer.c ****         mtCOVERAGE_TEST_MARKER();
1246:./Drivers/FreeRTOS/stream_buffer.c ****     }
1247:./Drivers/FreeRTOS/stream_buffer.c **** 
1248:./Drivers/FreeRTOS/stream_buffer.c ****     return xCount;
 2897              		.loc 1 1248 12
 2898 0032 FB68     		ldr	r3, [r7, #12]
1249:./Drivers/FreeRTOS/stream_buffer.c **** }
 2899              		.loc 1 1249 1
 2900 0034 1846     		mov	r0, r3
 2901 0036 1437     		adds	r7, r7, #20
 2902              	.LCFI101:
 2903              		.cfi_def_cfa_offset 4
 2904 0038 BD46     		mov	sp, r7
 2905              	.LCFI102:
 2906              		.cfi_def_cfa_register 13
 2907              		@ sp needed
 2908 003a 5DF8047B 		ldr	r7, [sp], #4
 2909              	.LCFI103:
 2910              		.cfi_restore 7
 2911              		.cfi_def_cfa_offset 0
 2912 003e 7047     		bx	lr
 2913              		.cfi_endproc
 2914              	.LFE24:
 2916              		.section	.text.prvInitialiseNewStreamBuffer,"ax",%progbits
 2917              		.align	1
 2918              		.syntax unified
 2919              		.thumb
 2920              		.thumb_func
 2921              		.fpu fpv4-sp-d16
 2923              	prvInitialiseNewStreamBuffer:
 2924              	.LFB25:
1250:./Drivers/FreeRTOS/stream_buffer.c **** /*-----------------------------------------------------------*/
1251:./Drivers/FreeRTOS/stream_buffer.c **** 
1252:./Drivers/FreeRTOS/stream_buffer.c **** static void prvInitialiseNewStreamBuffer( StreamBuffer_t * const pxStreamBuffer,
1253:./Drivers/FreeRTOS/stream_buffer.c ****                                           uint8_t * const pucBuffer,
1254:./Drivers/FreeRTOS/stream_buffer.c ****                                           size_t xBufferSizeBytes,
1255:./Drivers/FreeRTOS/stream_buffer.c ****                                           size_t xTriggerLevelBytes,
1256:./Drivers/FreeRTOS/stream_buffer.c ****                                           uint8_t ucFlags )
1257:./Drivers/FreeRTOS/stream_buffer.c **** {
 2925              		.loc 1 1257 1
 2926              		.cfi_startproc
 2927              		@ args = 4, pretend = 0, frame = 24
 2928              		@ frame_needed = 1, uses_anonymous_args = 0
 2929 0000 80B5     		push	{r7, lr}
 2930              	.LCFI104:
 2931              		.cfi_def_cfa_offset 8
 2932              		.cfi_offset 7, -8
 2933              		.cfi_offset 14, -4
 2934 0002 86B0     		sub	sp, sp, #24
 2935              	.LCFI105:
 2936              		.cfi_def_cfa_offset 32
 2937 0004 00AF     		add	r7, sp, #0
ARM GAS  C:\Users\Benson\AppData\Local\Temp\ccHty0UJ.s 			page 79


 2938              	.LCFI106:
 2939              		.cfi_def_cfa_register 7
 2940 0006 F860     		str	r0, [r7, #12]
 2941 0008 B960     		str	r1, [r7, #8]
 2942 000a 7A60     		str	r2, [r7, #4]
 2943 000c 3B60     		str	r3, [r7]
 2944              	.LBB165:
1258:./Drivers/FreeRTOS/stream_buffer.c ****     /* Assert here is deliberately writing to the entire buffer to ensure it can
1259:./Drivers/FreeRTOS/stream_buffer.c ****      * be written to without generating exceptions, and is setting the buffer to a
1260:./Drivers/FreeRTOS/stream_buffer.c ****      * known value to assist in development/debugging. */
1261:./Drivers/FreeRTOS/stream_buffer.c ****     #if ( configASSERT_DEFINED == 1 )
1262:./Drivers/FreeRTOS/stream_buffer.c ****         {
1263:./Drivers/FreeRTOS/stream_buffer.c ****             /* The value written just has to be identifiable when looking at the
1264:./Drivers/FreeRTOS/stream_buffer.c ****              * memory.  Don't use 0xA5 as that is the stack fill value and could
1265:./Drivers/FreeRTOS/stream_buffer.c ****              * result in confusion as to what is actually being observed. */
1266:./Drivers/FreeRTOS/stream_buffer.c ****             const BaseType_t xWriteValue = 0x55;
 2945              		.loc 1 1266 30
 2946 000e 5523     		movs	r3, #85
 2947 0010 7B61     		str	r3, [r7, #20]
1267:./Drivers/FreeRTOS/stream_buffer.c ****             configASSERT( memset( pucBuffer, ( int ) xWriteValue, xBufferSizeBytes ) == pucBuffer )
 2948              		.loc 1 1267 13
 2949 0012 7A68     		ldr	r2, [r7, #4]
 2950 0014 7969     		ldr	r1, [r7, #20]
 2951 0016 B868     		ldr	r0, [r7, #8]
 2952 0018 FFF7FEFF 		bl	memset
 2953 001c 0246     		mov	r2, r0
 2954 001e BB68     		ldr	r3, [r7, #8]
 2955 0020 9342     		cmp	r3, r2
 2956 0022 0AD0     		beq	.L169
 2957              	.LBB166:
 2958              	.LBB167:
 198:Drivers/FreeRTOS/portable/GCC/ARM_CM4F/portmacro.h ****         (
 2959              		.loc 2 198 9
 2960              		.syntax unified
 2961              	@ 198 "Drivers/FreeRTOS/portable/GCC/ARM_CM4F/portmacro.h" 1
 2962 0024 4FF05003 			mov r3, #80												
 2963 0028 83F31188 		msr basepri, r3											
 2964 002c BFF36F8F 		isb														
 2965 0030 BFF34F8F 		dsb														
 2966              	
 2967              	@ 0 "" 2
 2968              		.thumb
 2969              		.syntax unified
 2970 0034 3B61     		str	r3, [r7, #16]
 206:Drivers/FreeRTOS/portable/GCC/ARM_CM4F/portmacro.h **** 
 2971              		.loc 2 206 5
 2972 0036 00BF     		nop
 2973              	.L170:
 2974              	.LBE167:
 2975              	.LBE166:
 2976              		.loc 1 1267 13 discriminator 1
 2977 0038 FEE7     		b	.L170
 2978              	.L169:
 2979              	.LBE165:
1268:./Drivers/FreeRTOS/stream_buffer.c ****         } /*lint !e529 !e438 xWriteValue is only used if configASSERT() is defined. */
1269:./Drivers/FreeRTOS/stream_buffer.c ****     #endif
1270:./Drivers/FreeRTOS/stream_buffer.c **** 
ARM GAS  C:\Users\Benson\AppData\Local\Temp\ccHty0UJ.s 			page 80


1271:./Drivers/FreeRTOS/stream_buffer.c ****     ( void ) memset( ( void * ) pxStreamBuffer, 0x00, sizeof( StreamBuffer_t ) ); /*lint !e9087 mem
 2980              		.loc 1 1271 14
 2981 003a 2422     		movs	r2, #36
 2982 003c 0021     		movs	r1, #0
 2983 003e F868     		ldr	r0, [r7, #12]
 2984 0040 FFF7FEFF 		bl	memset
1272:./Drivers/FreeRTOS/stream_buffer.c ****     pxStreamBuffer->pucBuffer = pucBuffer;
 2985              		.loc 1 1272 31
 2986 0044 FB68     		ldr	r3, [r7, #12]
 2987 0046 BA68     		ldr	r2, [r7, #8]
 2988 0048 9A61     		str	r2, [r3, #24]
1273:./Drivers/FreeRTOS/stream_buffer.c ****     pxStreamBuffer->xLength = xBufferSizeBytes;
 2989              		.loc 1 1273 29
 2990 004a FB68     		ldr	r3, [r7, #12]
 2991 004c 7A68     		ldr	r2, [r7, #4]
 2992 004e 9A60     		str	r2, [r3, #8]
1274:./Drivers/FreeRTOS/stream_buffer.c ****     pxStreamBuffer->xTriggerLevelBytes = xTriggerLevelBytes;
 2993              		.loc 1 1274 40
 2994 0050 FB68     		ldr	r3, [r7, #12]
 2995 0052 3A68     		ldr	r2, [r7]
 2996 0054 DA60     		str	r2, [r3, #12]
1275:./Drivers/FreeRTOS/stream_buffer.c ****     pxStreamBuffer->ucFlags = ucFlags;
 2997              		.loc 1 1275 29
 2998 0056 FB68     		ldr	r3, [r7, #12]
 2999 0058 97F82020 		ldrb	r2, [r7, #32]
 3000 005c 1A77     		strb	r2, [r3, #28]
1276:./Drivers/FreeRTOS/stream_buffer.c **** }
 3001              		.loc 1 1276 1
 3002 005e 00BF     		nop
 3003 0060 1837     		adds	r7, r7, #24
 3004              	.LCFI107:
 3005              		.cfi_def_cfa_offset 8
 3006 0062 BD46     		mov	sp, r7
 3007              	.LCFI108:
 3008              		.cfi_def_cfa_register 13
 3009              		@ sp needed
 3010 0064 80BD     		pop	{r7, pc}
 3011              		.cfi_endproc
 3012              	.LFE25:
 3014              		.section	.text.uxStreamBufferGetStreamBufferNumber,"ax",%progbits
 3015              		.align	1
 3016              		.global	uxStreamBufferGetStreamBufferNumber
 3017              		.syntax unified
 3018              		.thumb
 3019              		.thumb_func
 3020              		.fpu fpv4-sp-d16
 3022              	uxStreamBufferGetStreamBufferNumber:
 3023              	.LFB26:
1277:./Drivers/FreeRTOS/stream_buffer.c **** 
