ARM GAS  C:\Users\Benson\AppData\Local\Temp\ccSM8CXv.s 			page 1


   1              		.cpu cortex-m4
   2              		.eabi_attribute 27, 1
   3              		.eabi_attribute 28, 1
   4              		.eabi_attribute 20, 1
   5              		.eabi_attribute 21, 1
   6              		.eabi_attribute 23, 3
   7              		.eabi_attribute 24, 1
   8              		.eabi_attribute 25, 1
   9              		.eabi_attribute 26, 1
  10              		.eabi_attribute 30, 6
  11              		.eabi_attribute 34, 1
  12              		.eabi_attribute 18, 4
  13              		.file	"tasks.c"
  14              		.text
  15              	.Ltext0:
  16              		.cfi_sections	.debug_frame
  17              		.global	pxCurrentTCB
  18              		.section	.bss.pxCurrentTCB,"aw",%nobits
  19              		.align	2
  22              	pxCurrentTCB:
  23 0000 00000000 		.space	4
  24              		.section	.bss.pxReadyTasksLists,"aw",%nobits
  25              		.align	2
  28              	pxReadyTasksLists:
  29 0000 00000000 		.space	100
  29      00000000 
  29      00000000 
  29      00000000 
  29      00000000 
  30              		.section	.bss.xDelayedTaskList1,"aw",%nobits
  31              		.align	2
  34              	xDelayedTaskList1:
  35 0000 00000000 		.space	20
  35      00000000 
  35      00000000 
  35      00000000 
  35      00000000 
  36              		.section	.bss.xDelayedTaskList2,"aw",%nobits
  37              		.align	2
  40              	xDelayedTaskList2:
  41 0000 00000000 		.space	20
  41      00000000 
  41      00000000 
  41      00000000 
  41      00000000 
  42              		.section	.bss.pxDelayedTaskList,"aw",%nobits
  43              		.align	2
  46              	pxDelayedTaskList:
  47 0000 00000000 		.space	4
  48              		.section	.bss.pxOverflowDelayedTaskList,"aw",%nobits
  49              		.align	2
  52              	pxOverflowDelayedTaskList:
  53 0000 00000000 		.space	4
  54              		.section	.bss.xPendingReadyList,"aw",%nobits
  55              		.align	2
  58              	xPendingReadyList:
  59 0000 00000000 		.space	20
ARM GAS  C:\Users\Benson\AppData\Local\Temp\ccSM8CXv.s 			page 2


  59      00000000 
  59      00000000 
  59      00000000 
  59      00000000 
  60              		.section	.bss.xTasksWaitingTermination,"aw",%nobits
  61              		.align	2
  64              	xTasksWaitingTermination:
  65 0000 00000000 		.space	20
  65      00000000 
  65      00000000 
  65      00000000 
  65      00000000 
  66              		.section	.bss.uxDeletedTasksWaitingCleanUp,"aw",%nobits
  67              		.align	2
  70              	uxDeletedTasksWaitingCleanUp:
  71 0000 00000000 		.space	4
  72              		.section	.bss.xSuspendedTaskList,"aw",%nobits
  73              		.align	2
  76              	xSuspendedTaskList:
  77 0000 00000000 		.space	20
  77      00000000 
  77      00000000 
  77      00000000 
  77      00000000 
  78              		.section	.bss.uxCurrentNumberOfTasks,"aw",%nobits
  79              		.align	2
  82              	uxCurrentNumberOfTasks:
  83 0000 00000000 		.space	4
  84              		.section	.bss.xTickCount,"aw",%nobits
  85              		.align	2
  88              	xTickCount:
  89 0000 00000000 		.space	4
  90              		.section	.bss.uxTopReadyPriority,"aw",%nobits
  91              		.align	2
  94              	uxTopReadyPriority:
  95 0000 00000000 		.space	4
  96              		.section	.bss.xSchedulerRunning,"aw",%nobits
  97              		.align	2
 100              	xSchedulerRunning:
 101 0000 00000000 		.space	4
 102              		.section	.bss.xPendedTicks,"aw",%nobits
 103              		.align	2
 106              	xPendedTicks:
 107 0000 00000000 		.space	4
 108              		.section	.bss.xYieldPending,"aw",%nobits
 109              		.align	2
 112              	xYieldPending:
 113 0000 00000000 		.space	4
 114              		.section	.bss.xNumOfOverflows,"aw",%nobits
 115              		.align	2
 118              	xNumOfOverflows:
 119 0000 00000000 		.space	4
 120              		.section	.bss.uxTaskNumber,"aw",%nobits
 121              		.align	2
 124              	uxTaskNumber:
 125 0000 00000000 		.space	4
 126              		.section	.bss.xNextTaskUnblockTime,"aw",%nobits
ARM GAS  C:\Users\Benson\AppData\Local\Temp\ccSM8CXv.s 			page 3


 127              		.align	2
 130              	xNextTaskUnblockTime:
 131 0000 00000000 		.space	4
 132              		.section	.bss.xIdleTaskHandle,"aw",%nobits
 133              		.align	2
 136              	xIdleTaskHandle:
 137 0000 00000000 		.space	4
 138              		.global	uxTopUsedPriority
 139              		.section	.data.uxTopUsedPriority,"aw"
 140              		.align	2
 143              	uxTopUsedPriority:
 144 0000 04000000 		.word	4
 145              		.section	.bss.uxSchedulerSuspended,"aw",%nobits
 146              		.align	2
 149              	uxSchedulerSuspended:
 150 0000 00000000 		.space	4
 151              		.section	.text.xTaskCreate,"ax",%progbits
 152              		.align	1
 153              		.global	xTaskCreate
 154              		.arch armv7e-m
 155              		.syntax unified
 156              		.thumb
 157              		.thumb_func
 158              		.fpu fpv4-sp-d16
 160              	xTaskCreate:
 161              	.LFB5:
 162              		.file 1 "./Drivers/FreeRTOS/tasks.c"
   1:./Drivers/FreeRTOS/tasks.c **** /*
   2:./Drivers/FreeRTOS/tasks.c ****  * FreeRTOS Kernel V10.4.6
   3:./Drivers/FreeRTOS/tasks.c ****  * Copyright (C) 2021 Amazon.com, Inc. or its affiliates.  All Rights Reserved.
   4:./Drivers/FreeRTOS/tasks.c ****  *
   5:./Drivers/FreeRTOS/tasks.c ****  * SPDX-License-Identifier: MIT
   6:./Drivers/FreeRTOS/tasks.c ****  *
   7:./Drivers/FreeRTOS/tasks.c ****  * Permission is hereby granted, free of charge, to any person obtaining a copy of
   8:./Drivers/FreeRTOS/tasks.c ****  * this software and associated documentation files (the "Software"), to deal in
   9:./Drivers/FreeRTOS/tasks.c ****  * the Software without restriction, including without limitation the rights to
  10:./Drivers/FreeRTOS/tasks.c ****  * use, copy, modify, merge, publish, distribute, sublicense, and/or sell copies of
  11:./Drivers/FreeRTOS/tasks.c ****  * the Software, and to permit persons to whom the Software is furnished to do so,
  12:./Drivers/FreeRTOS/tasks.c ****  * subject to the following conditions:
  13:./Drivers/FreeRTOS/tasks.c ****  *
  14:./Drivers/FreeRTOS/tasks.c ****  * The above copyright notice and this permission notice shall be included in all
  15:./Drivers/FreeRTOS/tasks.c ****  * copies or substantial portions of the Software.
  16:./Drivers/FreeRTOS/tasks.c ****  *
  17:./Drivers/FreeRTOS/tasks.c ****  * THE SOFTWARE IS PROVIDED "AS IS", WITHOUT WARRANTY OF ANY KIND, EXPRESS OR
  18:./Drivers/FreeRTOS/tasks.c ****  * IMPLIED, INCLUDING BUT NOT LIMITED TO THE WARRANTIES OF MERCHANTABILITY, FITNESS
  19:./Drivers/FreeRTOS/tasks.c ****  * FOR A PARTICULAR PURPOSE AND NONINFRINGEMENT. IN NO EVENT SHALL THE AUTHORS OR
  20:./Drivers/FreeRTOS/tasks.c ****  * COPYRIGHT HOLDERS BE LIABLE FOR ANY CLAIM, DAMAGES OR OTHER LIABILITY, WHETHER
  21:./Drivers/FreeRTOS/tasks.c ****  * IN AN ACTION OF CONTRACT, TORT OR OTHERWISE, ARISING FROM, OUT OF OR IN
  22:./Drivers/FreeRTOS/tasks.c ****  * CONNECTION WITH THE SOFTWARE OR THE USE OR OTHER DEALINGS IN THE SOFTWARE.
  23:./Drivers/FreeRTOS/tasks.c ****  *
  24:./Drivers/FreeRTOS/tasks.c ****  * https://www.FreeRTOS.org
  25:./Drivers/FreeRTOS/tasks.c ****  * https://github.com/FreeRTOS
  26:./Drivers/FreeRTOS/tasks.c ****  *
  27:./Drivers/FreeRTOS/tasks.c ****  */
  28:./Drivers/FreeRTOS/tasks.c **** 
  29:./Drivers/FreeRTOS/tasks.c **** /* Standard includes. */
  30:./Drivers/FreeRTOS/tasks.c **** #include <stdlib.h>
ARM GAS  C:\Users\Benson\AppData\Local\Temp\ccSM8CXv.s 			page 4


  31:./Drivers/FreeRTOS/tasks.c **** #include <string.h>
  32:./Drivers/FreeRTOS/tasks.c **** 
  33:./Drivers/FreeRTOS/tasks.c **** /* Defining MPU_WRAPPERS_INCLUDED_FROM_API_FILE prevents task.h from redefining
  34:./Drivers/FreeRTOS/tasks.c ****  * all the API functions to use the MPU wrappers.  That should only be done when
  35:./Drivers/FreeRTOS/tasks.c ****  * task.h is included from an application file. */
  36:./Drivers/FreeRTOS/tasks.c **** #define MPU_WRAPPERS_INCLUDED_FROM_API_FILE
  37:./Drivers/FreeRTOS/tasks.c **** 
  38:./Drivers/FreeRTOS/tasks.c **** /* FreeRTOS includes. */
  39:./Drivers/FreeRTOS/tasks.c **** #include "FreeRTOS.h"
  40:./Drivers/FreeRTOS/tasks.c **** #include "task.h"
  41:./Drivers/FreeRTOS/tasks.c **** #include "timers.h"
  42:./Drivers/FreeRTOS/tasks.c **** #include "stack_macros.h"
  43:./Drivers/FreeRTOS/tasks.c **** 
  44:./Drivers/FreeRTOS/tasks.c **** /* Lint e9021, e961 and e750 are suppressed as a MISRA exception justified
  45:./Drivers/FreeRTOS/tasks.c ****  * because the MPU ports require MPU_WRAPPERS_INCLUDED_FROM_API_FILE to be defined
  46:./Drivers/FreeRTOS/tasks.c ****  * for the header files above, but not in this file, in order to generate the
  47:./Drivers/FreeRTOS/tasks.c ****  * correct privileged Vs unprivileged linkage and placement. */
  48:./Drivers/FreeRTOS/tasks.c **** #undef MPU_WRAPPERS_INCLUDED_FROM_API_FILE /*lint !e961 !e750 !e9021. */
  49:./Drivers/FreeRTOS/tasks.c **** 
  50:./Drivers/FreeRTOS/tasks.c **** /* Set configUSE_STATS_FORMATTING_FUNCTIONS to 2 to include the stats formatting
  51:./Drivers/FreeRTOS/tasks.c ****  * functions but without including stdio.h here. */
  52:./Drivers/FreeRTOS/tasks.c **** #if ( configUSE_STATS_FORMATTING_FUNCTIONS == 1 )
  53:./Drivers/FreeRTOS/tasks.c **** 
  54:./Drivers/FreeRTOS/tasks.c **** /* At the bottom of this file are two optional functions that can be used
  55:./Drivers/FreeRTOS/tasks.c ****  * to generate human readable text from the raw data generated by the
  56:./Drivers/FreeRTOS/tasks.c ****  * uxTaskGetSystemState() function.  Note the formatting functions are provided
  57:./Drivers/FreeRTOS/tasks.c ****  * for convenience only, and are NOT considered part of the kernel. */
  58:./Drivers/FreeRTOS/tasks.c ****     #include <stdio.h>
  59:./Drivers/FreeRTOS/tasks.c **** #endif /* configUSE_STATS_FORMATTING_FUNCTIONS == 1 ) */
  60:./Drivers/FreeRTOS/tasks.c **** 
  61:./Drivers/FreeRTOS/tasks.c **** #if ( configUSE_PREEMPTION == 0 )
  62:./Drivers/FreeRTOS/tasks.c **** 
  63:./Drivers/FreeRTOS/tasks.c **** /* If the cooperative scheduler is being used then a yield should not be
  64:./Drivers/FreeRTOS/tasks.c ****  * performed just because a higher priority task has been woken. */
  65:./Drivers/FreeRTOS/tasks.c ****     #define taskYIELD_IF_USING_PREEMPTION()
  66:./Drivers/FreeRTOS/tasks.c **** #else
  67:./Drivers/FreeRTOS/tasks.c ****     #define taskYIELD_IF_USING_PREEMPTION()    portYIELD_WITHIN_API()
  68:./Drivers/FreeRTOS/tasks.c **** #endif
  69:./Drivers/FreeRTOS/tasks.c **** 
  70:./Drivers/FreeRTOS/tasks.c **** /* Values that can be assigned to the ucNotifyState member of the TCB. */
  71:./Drivers/FreeRTOS/tasks.c **** #define taskNOT_WAITING_NOTIFICATION              ( ( uint8_t ) 0 ) /* Must be zero as it is the in
  72:./Drivers/FreeRTOS/tasks.c **** #define taskWAITING_NOTIFICATION                  ( ( uint8_t ) 1 )
  73:./Drivers/FreeRTOS/tasks.c **** #define taskNOTIFICATION_RECEIVED                 ( ( uint8_t ) 2 )
  74:./Drivers/FreeRTOS/tasks.c **** 
  75:./Drivers/FreeRTOS/tasks.c **** /*
  76:./Drivers/FreeRTOS/tasks.c ****  * The value used to fill the stack of a task when the task is created.  This
  77:./Drivers/FreeRTOS/tasks.c ****  * is used purely for checking the high water mark for tasks.
  78:./Drivers/FreeRTOS/tasks.c ****  */
  79:./Drivers/FreeRTOS/tasks.c **** #define tskSTACK_FILL_BYTE                        ( 0xa5U )
  80:./Drivers/FreeRTOS/tasks.c **** 
  81:./Drivers/FreeRTOS/tasks.c **** /* Bits used to record how a task's stack and TCB were allocated. */
  82:./Drivers/FreeRTOS/tasks.c **** #define tskDYNAMICALLY_ALLOCATED_STACK_AND_TCB    ( ( uint8_t ) 0 )
  83:./Drivers/FreeRTOS/tasks.c **** #define tskSTATICALLY_ALLOCATED_STACK_ONLY        ( ( uint8_t ) 1 )
  84:./Drivers/FreeRTOS/tasks.c **** #define tskSTATICALLY_ALLOCATED_STACK_AND_TCB     ( ( uint8_t ) 2 )
  85:./Drivers/FreeRTOS/tasks.c **** 
  86:./Drivers/FreeRTOS/tasks.c **** /* If any of the following are set then task stacks are filled with a known
  87:./Drivers/FreeRTOS/tasks.c ****  * value so the high water mark can be determined.  If none of the following are
ARM GAS  C:\Users\Benson\AppData\Local\Temp\ccSM8CXv.s 			page 5


  88:./Drivers/FreeRTOS/tasks.c ****  * set then don't fill the stack so there is no unnecessary dependency on memset. */
  89:./Drivers/FreeRTOS/tasks.c **** #if ( ( configCHECK_FOR_STACK_OVERFLOW > 1 ) || ( configUSE_TRACE_FACILITY == 1 ) || ( INCLUDE_uxTa
  90:./Drivers/FreeRTOS/tasks.c ****     #define tskSET_NEW_STACKS_TO_KNOWN_VALUE    1
  91:./Drivers/FreeRTOS/tasks.c **** #else
  92:./Drivers/FreeRTOS/tasks.c ****     #define tskSET_NEW_STACKS_TO_KNOWN_VALUE    0
  93:./Drivers/FreeRTOS/tasks.c **** #endif
  94:./Drivers/FreeRTOS/tasks.c **** 
  95:./Drivers/FreeRTOS/tasks.c **** /*
  96:./Drivers/FreeRTOS/tasks.c ****  * Macros used by vListTask to indicate which state a task is in.
  97:./Drivers/FreeRTOS/tasks.c ****  */
  98:./Drivers/FreeRTOS/tasks.c **** #define tskRUNNING_CHAR      ( 'X' )
  99:./Drivers/FreeRTOS/tasks.c **** #define tskBLOCKED_CHAR      ( 'B' )
 100:./Drivers/FreeRTOS/tasks.c **** #define tskREADY_CHAR        ( 'R' )
 101:./Drivers/FreeRTOS/tasks.c **** #define tskDELETED_CHAR      ( 'D' )
 102:./Drivers/FreeRTOS/tasks.c **** #define tskSUSPENDED_CHAR    ( 'S' )
 103:./Drivers/FreeRTOS/tasks.c **** 
 104:./Drivers/FreeRTOS/tasks.c **** /*
 105:./Drivers/FreeRTOS/tasks.c ****  * Some kernel aware debuggers require the data the debugger needs access to to
 106:./Drivers/FreeRTOS/tasks.c ****  * be global, rather than file scope.
 107:./Drivers/FreeRTOS/tasks.c ****  */
 108:./Drivers/FreeRTOS/tasks.c **** #ifdef portREMOVE_STATIC_QUALIFIER
 109:./Drivers/FreeRTOS/tasks.c ****     #define static
 110:./Drivers/FreeRTOS/tasks.c **** #endif
 111:./Drivers/FreeRTOS/tasks.c **** 
 112:./Drivers/FreeRTOS/tasks.c **** /* The name allocated to the Idle task.  This can be overridden by defining
 113:./Drivers/FreeRTOS/tasks.c ****  * configIDLE_TASK_NAME in FreeRTOSConfig.h. */
 114:./Drivers/FreeRTOS/tasks.c **** #ifndef configIDLE_TASK_NAME
 115:./Drivers/FreeRTOS/tasks.c ****     #define configIDLE_TASK_NAME    "IDLE"
 116:./Drivers/FreeRTOS/tasks.c **** #endif
 117:./Drivers/FreeRTOS/tasks.c **** 
 118:./Drivers/FreeRTOS/tasks.c **** #if ( configUSE_PORT_OPTIMISED_TASK_SELECTION == 0 )
 119:./Drivers/FreeRTOS/tasks.c **** 
 120:./Drivers/FreeRTOS/tasks.c **** /* If configUSE_PORT_OPTIMISED_TASK_SELECTION is 0 then task selection is
 121:./Drivers/FreeRTOS/tasks.c ****  * performed in a generic way that is not optimised to any particular
 122:./Drivers/FreeRTOS/tasks.c ****  * microcontroller architecture. */
 123:./Drivers/FreeRTOS/tasks.c **** 
 124:./Drivers/FreeRTOS/tasks.c **** /* uxTopReadyPriority holds the priority of the highest priority ready
 125:./Drivers/FreeRTOS/tasks.c ****  * state task. */
 126:./Drivers/FreeRTOS/tasks.c ****     #define taskRECORD_READY_PRIORITY( uxPriority ) \
 127:./Drivers/FreeRTOS/tasks.c ****     {                                               \
 128:./Drivers/FreeRTOS/tasks.c ****         if( ( uxPriority ) > uxTopReadyPriority )   \
 129:./Drivers/FreeRTOS/tasks.c ****         {                                           \
 130:./Drivers/FreeRTOS/tasks.c ****             uxTopReadyPriority = ( uxPriority );    \
 131:./Drivers/FreeRTOS/tasks.c ****         }                                           \
 132:./Drivers/FreeRTOS/tasks.c ****     } /* taskRECORD_READY_PRIORITY */
 133:./Drivers/FreeRTOS/tasks.c **** 
 134:./Drivers/FreeRTOS/tasks.c **** /*-----------------------------------------------------------*/
 135:./Drivers/FreeRTOS/tasks.c **** 
 136:./Drivers/FreeRTOS/tasks.c ****     #define taskSELECT_HIGHEST_PRIORITY_TASK()                                \
 137:./Drivers/FreeRTOS/tasks.c ****     {                                                                         \
 138:./Drivers/FreeRTOS/tasks.c ****         UBaseType_t uxTopPriority = uxTopReadyPriority;                       \
 139:./Drivers/FreeRTOS/tasks.c ****                                                                               \
 140:./Drivers/FreeRTOS/tasks.c ****         /* Find the highest priority queue that contains ready tasks. */      \
 141:./Drivers/FreeRTOS/tasks.c ****         while( listLIST_IS_EMPTY( &( pxReadyTasksLists[ uxTopPriority ] ) ) ) \
 142:./Drivers/FreeRTOS/tasks.c ****         {                                                                     \
 143:./Drivers/FreeRTOS/tasks.c ****             configASSERT( uxTopPriority );                                    \
 144:./Drivers/FreeRTOS/tasks.c ****             --uxTopPriority;                                                  \
ARM GAS  C:\Users\Benson\AppData\Local\Temp\ccSM8CXv.s 			page 6


 145:./Drivers/FreeRTOS/tasks.c ****         }                                                                     \
 146:./Drivers/FreeRTOS/tasks.c ****                                                                               \
 147:./Drivers/FreeRTOS/tasks.c ****         /* listGET_OWNER_OF_NEXT_ENTRY indexes through the list, so the tasks of \
 148:./Drivers/FreeRTOS/tasks.c ****          * the  same priority get an equal share of the processor time. */                    \
 149:./Drivers/FreeRTOS/tasks.c ****         listGET_OWNER_OF_NEXT_ENTRY( pxCurrentTCB, &( pxReadyTasksLists[ uxTopPriority ] ) ); \
 150:./Drivers/FreeRTOS/tasks.c ****         uxTopReadyPriority = uxTopPriority;                                                   \
 151:./Drivers/FreeRTOS/tasks.c ****     } /* taskSELECT_HIGHEST_PRIORITY_TASK */
 152:./Drivers/FreeRTOS/tasks.c **** 
 153:./Drivers/FreeRTOS/tasks.c **** /*-----------------------------------------------------------*/
 154:./Drivers/FreeRTOS/tasks.c **** 
 155:./Drivers/FreeRTOS/tasks.c **** /* Define away taskRESET_READY_PRIORITY() and portRESET_READY_PRIORITY() as
 156:./Drivers/FreeRTOS/tasks.c ****  * they are only required when a port optimised method of task selection is
 157:./Drivers/FreeRTOS/tasks.c ****  * being used. */
 158:./Drivers/FreeRTOS/tasks.c ****     #define taskRESET_READY_PRIORITY( uxPriority )
 159:./Drivers/FreeRTOS/tasks.c ****     #define portRESET_READY_PRIORITY( uxPriority, uxTopReadyPriority )
 160:./Drivers/FreeRTOS/tasks.c **** 
 161:./Drivers/FreeRTOS/tasks.c **** #else /* configUSE_PORT_OPTIMISED_TASK_SELECTION */
 162:./Drivers/FreeRTOS/tasks.c **** 
 163:./Drivers/FreeRTOS/tasks.c **** /* If configUSE_PORT_OPTIMISED_TASK_SELECTION is 1 then task selection is
 164:./Drivers/FreeRTOS/tasks.c ****  * performed in a way that is tailored to the particular microcontroller
 165:./Drivers/FreeRTOS/tasks.c ****  * architecture being used. */
 166:./Drivers/FreeRTOS/tasks.c **** 
 167:./Drivers/FreeRTOS/tasks.c **** /* A port optimised version is provided.  Call the port defined macros. */
 168:./Drivers/FreeRTOS/tasks.c ****     #define taskRECORD_READY_PRIORITY( uxPriority )    portRECORD_READY_PRIORITY( uxPriority, uxTop
 169:./Drivers/FreeRTOS/tasks.c **** 
 170:./Drivers/FreeRTOS/tasks.c **** /*-----------------------------------------------------------*/
 171:./Drivers/FreeRTOS/tasks.c **** 
 172:./Drivers/FreeRTOS/tasks.c ****     #define taskSELECT_HIGHEST_PRIORITY_TASK()                                                  \
 173:./Drivers/FreeRTOS/tasks.c ****     {                                                                                           \
 174:./Drivers/FreeRTOS/tasks.c ****         UBaseType_t uxTopPriority;                                                              \
 175:./Drivers/FreeRTOS/tasks.c ****                                                                                                 \
 176:./Drivers/FreeRTOS/tasks.c ****         /* Find the highest priority list that contains ready tasks. */                         \
 177:./Drivers/FreeRTOS/tasks.c ****         portGET_HIGHEST_PRIORITY( uxTopPriority, uxTopReadyPriority );                          \
 178:./Drivers/FreeRTOS/tasks.c ****         configASSERT( listCURRENT_LIST_LENGTH( &( pxReadyTasksLists[ uxTopPriority ] ) ) > 0 ); \
 179:./Drivers/FreeRTOS/tasks.c ****         listGET_OWNER_OF_NEXT_ENTRY( pxCurrentTCB, &( pxReadyTasksLists[ uxTopPriority ] ) );   \
 180:./Drivers/FreeRTOS/tasks.c ****     } /* taskSELECT_HIGHEST_PRIORITY_TASK() */
 181:./Drivers/FreeRTOS/tasks.c **** 
 182:./Drivers/FreeRTOS/tasks.c **** /*-----------------------------------------------------------*/
 183:./Drivers/FreeRTOS/tasks.c **** 
 184:./Drivers/FreeRTOS/tasks.c **** /* A port optimised version is provided, call it only if the TCB being reset
 185:./Drivers/FreeRTOS/tasks.c ****  * is being referenced from a ready list.  If it is referenced from a delayed
 186:./Drivers/FreeRTOS/tasks.c ****  * or suspended list then it won't be in a ready list. */
 187:./Drivers/FreeRTOS/tasks.c ****     #define taskRESET_READY_PRIORITY( uxPriority )                                                 
 188:./Drivers/FreeRTOS/tasks.c ****     {                                                                                              
 189:./Drivers/FreeRTOS/tasks.c ****         if( listCURRENT_LIST_LENGTH( &( pxReadyTasksLists[ ( uxPriority ) ] ) ) == ( UBaseType_t ) 
 190:./Drivers/FreeRTOS/tasks.c ****         {                                                                                          
 191:./Drivers/FreeRTOS/tasks.c ****             portRESET_READY_PRIORITY( ( uxPriority ), ( uxTopReadyPriority ) );                    
 192:./Drivers/FreeRTOS/tasks.c ****         }                                                                                          
 193:./Drivers/FreeRTOS/tasks.c ****     }
 194:./Drivers/FreeRTOS/tasks.c **** 
 195:./Drivers/FreeRTOS/tasks.c **** #endif /* configUSE_PORT_OPTIMISED_TASK_SELECTION */
 196:./Drivers/FreeRTOS/tasks.c **** 
 197:./Drivers/FreeRTOS/tasks.c **** /*-----------------------------------------------------------*/
 198:./Drivers/FreeRTOS/tasks.c **** 
 199:./Drivers/FreeRTOS/tasks.c **** /* pxDelayedTaskList and pxOverflowDelayedTaskList are switched when the tick
 200:./Drivers/FreeRTOS/tasks.c ****  * count overflows. */
 201:./Drivers/FreeRTOS/tasks.c **** #define taskSWITCH_DELAYED_LISTS()                                                \
ARM GAS  C:\Users\Benson\AppData\Local\Temp\ccSM8CXv.s 			page 7


 202:./Drivers/FreeRTOS/tasks.c ****     {                                                                             \
 203:./Drivers/FreeRTOS/tasks.c ****         List_t * pxTemp;                                                          \
 204:./Drivers/FreeRTOS/tasks.c ****                                                                                   \
 205:./Drivers/FreeRTOS/tasks.c ****         /* The delayed tasks list should be empty when the lists are switched. */ \
 206:./Drivers/FreeRTOS/tasks.c ****         configASSERT( ( listLIST_IS_EMPTY( pxDelayedTaskList ) ) );               \
 207:./Drivers/FreeRTOS/tasks.c ****                                                                                   \
 208:./Drivers/FreeRTOS/tasks.c ****         pxTemp = pxDelayedTaskList;                                               \
 209:./Drivers/FreeRTOS/tasks.c ****         pxDelayedTaskList = pxOverflowDelayedTaskList;                            \
 210:./Drivers/FreeRTOS/tasks.c ****         pxOverflowDelayedTaskList = pxTemp;                                       \
 211:./Drivers/FreeRTOS/tasks.c ****         xNumOfOverflows++;                                                        \
 212:./Drivers/FreeRTOS/tasks.c ****         prvResetNextTaskUnblockTime();                                            \
 213:./Drivers/FreeRTOS/tasks.c ****     }
 214:./Drivers/FreeRTOS/tasks.c **** 
 215:./Drivers/FreeRTOS/tasks.c **** /*-----------------------------------------------------------*/
 216:./Drivers/FreeRTOS/tasks.c **** 
 217:./Drivers/FreeRTOS/tasks.c **** /*
 218:./Drivers/FreeRTOS/tasks.c ****  * Place the task represented by pxTCB into the appropriate ready list for
 219:./Drivers/FreeRTOS/tasks.c ****  * the task.  It is inserted at the end of the list.
 220:./Drivers/FreeRTOS/tasks.c ****  */
 221:./Drivers/FreeRTOS/tasks.c **** #define prvAddTaskToReadyList( pxTCB )                                                             
 222:./Drivers/FreeRTOS/tasks.c ****     traceMOVED_TASK_TO_READY_STATE( pxTCB );                                                       
 223:./Drivers/FreeRTOS/tasks.c ****     taskRECORD_READY_PRIORITY( ( pxTCB )->uxPriority );                                            
 224:./Drivers/FreeRTOS/tasks.c ****     listINSERT_END( &( pxReadyTasksLists[ ( pxTCB )->uxPriority ] ), &( ( pxTCB )->xStateListItem )
 225:./Drivers/FreeRTOS/tasks.c ****     tracePOST_MOVED_TASK_TO_READY_STATE( pxTCB )
 226:./Drivers/FreeRTOS/tasks.c **** /*-----------------------------------------------------------*/
 227:./Drivers/FreeRTOS/tasks.c **** 
 228:./Drivers/FreeRTOS/tasks.c **** /*
 229:./Drivers/FreeRTOS/tasks.c ****  * Several functions take a TaskHandle_t parameter that can optionally be NULL,
 230:./Drivers/FreeRTOS/tasks.c ****  * where NULL is used to indicate that the handle of the currently executing
 231:./Drivers/FreeRTOS/tasks.c ****  * task should be used in place of the parameter.  This macro simply checks to
 232:./Drivers/FreeRTOS/tasks.c ****  * see if the parameter is NULL and returns a pointer to the appropriate TCB.
 233:./Drivers/FreeRTOS/tasks.c ****  */
 234:./Drivers/FreeRTOS/tasks.c **** #define prvGetTCBFromHandle( pxHandle )    ( ( ( pxHandle ) == NULL ) ? pxCurrentTCB : ( pxHandle )
 235:./Drivers/FreeRTOS/tasks.c **** 
 236:./Drivers/FreeRTOS/tasks.c **** /* The item value of the event list item is normally used to hold the priority
 237:./Drivers/FreeRTOS/tasks.c ****  * of the task to which it belongs (coded to allow it to be held in reverse
 238:./Drivers/FreeRTOS/tasks.c ****  * priority order).  However, it is occasionally borrowed for other purposes.  It
 239:./Drivers/FreeRTOS/tasks.c ****  * is important its value is not updated due to a task priority change while it is
 240:./Drivers/FreeRTOS/tasks.c ****  * being used for another purpose.  The following bit definition is used to inform
 241:./Drivers/FreeRTOS/tasks.c ****  * the scheduler that the value should not be changed - in which case it is the
 242:./Drivers/FreeRTOS/tasks.c ****  * responsibility of whichever module is using the value to ensure it gets set back
 243:./Drivers/FreeRTOS/tasks.c ****  * to its original value when it is released. */
 244:./Drivers/FreeRTOS/tasks.c **** #if ( configUSE_16_BIT_TICKS == 1 )
 245:./Drivers/FreeRTOS/tasks.c ****     #define taskEVENT_LIST_ITEM_VALUE_IN_USE    0x8000U
 246:./Drivers/FreeRTOS/tasks.c **** #else
 247:./Drivers/FreeRTOS/tasks.c ****     #define taskEVENT_LIST_ITEM_VALUE_IN_USE    0x80000000UL
 248:./Drivers/FreeRTOS/tasks.c **** #endif
 249:./Drivers/FreeRTOS/tasks.c **** 
 250:./Drivers/FreeRTOS/tasks.c **** /*
 251:./Drivers/FreeRTOS/tasks.c ****  * Task control block.  A task control block (TCB) is allocated for each task,
 252:./Drivers/FreeRTOS/tasks.c ****  * and stores task state information, including a pointer to the task's context
 253:./Drivers/FreeRTOS/tasks.c ****  * (the task's run time environment, including register values)
 254:./Drivers/FreeRTOS/tasks.c ****  */
 255:./Drivers/FreeRTOS/tasks.c **** typedef struct tskTaskControlBlock       /* The old naming convention is used to prevent breaking k
 256:./Drivers/FreeRTOS/tasks.c **** {
 257:./Drivers/FreeRTOS/tasks.c ****     volatile StackType_t * pxTopOfStack; /*< Points to the location of the last item placed on the 
 258:./Drivers/FreeRTOS/tasks.c **** 
ARM GAS  C:\Users\Benson\AppData\Local\Temp\ccSM8CXv.s 			page 8


 259:./Drivers/FreeRTOS/tasks.c ****     #if ( portUSING_MPU_WRAPPERS == 1 )
 260:./Drivers/FreeRTOS/tasks.c ****         xMPU_SETTINGS xMPUSettings; /*< The MPU settings are defined as part of the port layer.  TH
 261:./Drivers/FreeRTOS/tasks.c ****     #endif
 262:./Drivers/FreeRTOS/tasks.c **** 
 263:./Drivers/FreeRTOS/tasks.c ****     ListItem_t xStateListItem;                  /*< The list that the state list item of a task is 
 264:./Drivers/FreeRTOS/tasks.c ****     ListItem_t xEventListItem;                  /*< Used to reference a task from an event list. */
 265:./Drivers/FreeRTOS/tasks.c ****     UBaseType_t uxPriority;                     /*< The priority of the task.  0 is the lowest prio
 266:./Drivers/FreeRTOS/tasks.c ****     StackType_t * pxStack;                      /*< Points to the start of the stack. */
 267:./Drivers/FreeRTOS/tasks.c ****     char pcTaskName[ configMAX_TASK_NAME_LEN ]; /*< Descriptive name given to the task when created
 268:./Drivers/FreeRTOS/tasks.c **** 
 269:./Drivers/FreeRTOS/tasks.c ****     #if ( ( portSTACK_GROWTH > 0 ) || ( configRECORD_STACK_HIGH_ADDRESS == 1 ) )
 270:./Drivers/FreeRTOS/tasks.c ****         StackType_t * pxEndOfStack; /*< Points to the highest valid address for the stack. */
 271:./Drivers/FreeRTOS/tasks.c ****     #endif
 272:./Drivers/FreeRTOS/tasks.c **** 
 273:./Drivers/FreeRTOS/tasks.c ****     #if ( portCRITICAL_NESTING_IN_TCB == 1 )
 274:./Drivers/FreeRTOS/tasks.c ****         UBaseType_t uxCriticalNesting; /*< Holds the critical section nesting depth for ports that 
 275:./Drivers/FreeRTOS/tasks.c ****     #endif
 276:./Drivers/FreeRTOS/tasks.c **** 
 277:./Drivers/FreeRTOS/tasks.c ****     #if ( configUSE_TRACE_FACILITY == 1 )
 278:./Drivers/FreeRTOS/tasks.c ****         UBaseType_t uxTCBNumber;  /*< Stores a number that increments each time a TCB is created.  
 279:./Drivers/FreeRTOS/tasks.c ****         UBaseType_t uxTaskNumber; /*< Stores a number specifically for use by third party trace cod
 280:./Drivers/FreeRTOS/tasks.c ****     #endif
 281:./Drivers/FreeRTOS/tasks.c **** 
 282:./Drivers/FreeRTOS/tasks.c ****     #if ( configUSE_MUTEXES == 1 )
 283:./Drivers/FreeRTOS/tasks.c ****         UBaseType_t uxBasePriority; /*< The priority last assigned to the task - used by the priori
 284:./Drivers/FreeRTOS/tasks.c ****         UBaseType_t uxMutexesHeld;
 285:./Drivers/FreeRTOS/tasks.c ****     #endif
 286:./Drivers/FreeRTOS/tasks.c **** 
 287:./Drivers/FreeRTOS/tasks.c ****     #if ( configUSE_APPLICATION_TASK_TAG == 1 )
 288:./Drivers/FreeRTOS/tasks.c ****         TaskHookFunction_t pxTaskTag;
 289:./Drivers/FreeRTOS/tasks.c ****     #endif
 290:./Drivers/FreeRTOS/tasks.c **** 
 291:./Drivers/FreeRTOS/tasks.c ****     #if ( configNUM_THREAD_LOCAL_STORAGE_POINTERS > 0 )
 292:./Drivers/FreeRTOS/tasks.c ****         void * pvThreadLocalStoragePointers[ configNUM_THREAD_LOCAL_STORAGE_POINTERS ];
 293:./Drivers/FreeRTOS/tasks.c ****     #endif
 294:./Drivers/FreeRTOS/tasks.c **** 
 295:./Drivers/FreeRTOS/tasks.c ****     #if ( configGENERATE_RUN_TIME_STATS == 1 )
 296:./Drivers/FreeRTOS/tasks.c ****         configRUN_TIME_COUNTER_TYPE ulRunTimeCounter; /*< Stores the amount of time the task has sp
 297:./Drivers/FreeRTOS/tasks.c ****     #endif
 298:./Drivers/FreeRTOS/tasks.c **** 
 299:./Drivers/FreeRTOS/tasks.c ****     #if ( configUSE_NEWLIB_REENTRANT == 1 )
 300:./Drivers/FreeRTOS/tasks.c **** 
 301:./Drivers/FreeRTOS/tasks.c ****         /* Allocate a Newlib reent structure that is specific to this task.
 302:./Drivers/FreeRTOS/tasks.c ****          * Note Newlib support has been included by popular demand, but is not
 303:./Drivers/FreeRTOS/tasks.c ****          * used by the FreeRTOS maintainers themselves.  FreeRTOS is not
 304:./Drivers/FreeRTOS/tasks.c ****          * responsible for resulting newlib operation.  User must be familiar with
 305:./Drivers/FreeRTOS/tasks.c ****          * newlib and must provide system-wide implementations of the necessary
 306:./Drivers/FreeRTOS/tasks.c ****          * stubs. Be warned that (at the time of writing) the current newlib design
 307:./Drivers/FreeRTOS/tasks.c ****          * implements a system-wide malloc() that must be provided with locks.
 308:./Drivers/FreeRTOS/tasks.c ****          *
 309:./Drivers/FreeRTOS/tasks.c ****          * See the third party link http://www.nadler.com/embedded/newlibAndFreeRTOS.html
 310:./Drivers/FreeRTOS/tasks.c ****          * for additional information. */
 311:./Drivers/FreeRTOS/tasks.c ****         struct  _reent xNewLib_reent;
 312:./Drivers/FreeRTOS/tasks.c ****     #endif
 313:./Drivers/FreeRTOS/tasks.c **** 
 314:./Drivers/FreeRTOS/tasks.c ****     #if ( configUSE_TASK_NOTIFICATIONS == 1 )
 315:./Drivers/FreeRTOS/tasks.c ****         volatile uint32_t ulNotifiedValue[ configTASK_NOTIFICATION_ARRAY_ENTRIES ];
ARM GAS  C:\Users\Benson\AppData\Local\Temp\ccSM8CXv.s 			page 9


 316:./Drivers/FreeRTOS/tasks.c ****         volatile uint8_t ucNotifyState[ configTASK_NOTIFICATION_ARRAY_ENTRIES ];
 317:./Drivers/FreeRTOS/tasks.c ****     #endif
 318:./Drivers/FreeRTOS/tasks.c **** 
 319:./Drivers/FreeRTOS/tasks.c ****     /* See the comments in FreeRTOS.h with the definition of
 320:./Drivers/FreeRTOS/tasks.c ****      * tskSTATIC_AND_DYNAMIC_ALLOCATION_POSSIBLE. */
 321:./Drivers/FreeRTOS/tasks.c ****     #if ( tskSTATIC_AND_DYNAMIC_ALLOCATION_POSSIBLE != 0 ) /*lint !e731 !e9029 Macro has been conso
 322:./Drivers/FreeRTOS/tasks.c ****         uint8_t ucStaticallyAllocated;                     /*< Set to pdTRUE if the task is a stati
 323:./Drivers/FreeRTOS/tasks.c ****     #endif
 324:./Drivers/FreeRTOS/tasks.c **** 
 325:./Drivers/FreeRTOS/tasks.c ****     #if ( INCLUDE_xTaskAbortDelay == 1 )
 326:./Drivers/FreeRTOS/tasks.c ****         uint8_t ucDelayAborted;
 327:./Drivers/FreeRTOS/tasks.c ****     #endif
 328:./Drivers/FreeRTOS/tasks.c **** 
 329:./Drivers/FreeRTOS/tasks.c ****     #if ( configUSE_POSIX_ERRNO == 1 )
 330:./Drivers/FreeRTOS/tasks.c ****         int iTaskErrno;
 331:./Drivers/FreeRTOS/tasks.c ****     #endif
 332:./Drivers/FreeRTOS/tasks.c **** } tskTCB;
 333:./Drivers/FreeRTOS/tasks.c **** 
 334:./Drivers/FreeRTOS/tasks.c **** /* The old tskTCB name is maintained above then typedefed to the new TCB_t name
 335:./Drivers/FreeRTOS/tasks.c ****  * below to enable the use of older kernel aware debuggers. */
 336:./Drivers/FreeRTOS/tasks.c **** typedef tskTCB TCB_t;
 337:./Drivers/FreeRTOS/tasks.c **** 
 338:./Drivers/FreeRTOS/tasks.c **** /*lint -save -e956 A manual analysis and inspection has been used to determine
 339:./Drivers/FreeRTOS/tasks.c ****  * which static variables must be declared volatile. */
 340:./Drivers/FreeRTOS/tasks.c **** PRIVILEGED_DATA TCB_t * volatile pxCurrentTCB = NULL;
 341:./Drivers/FreeRTOS/tasks.c **** 
 342:./Drivers/FreeRTOS/tasks.c **** /* Lists for ready and blocked tasks. --------------------
 343:./Drivers/FreeRTOS/tasks.c ****  * xDelayedTaskList1 and xDelayedTaskList2 could be moved to function scope but
 344:./Drivers/FreeRTOS/tasks.c ****  * doing so breaks some kernel aware debuggers and debuggers that rely on removing
 345:./Drivers/FreeRTOS/tasks.c ****  * the static qualifier. */
 346:./Drivers/FreeRTOS/tasks.c **** PRIVILEGED_DATA static List_t pxReadyTasksLists[ configMAX_PRIORITIES ]; /*< Prioritised ready task
 347:./Drivers/FreeRTOS/tasks.c **** PRIVILEGED_DATA static List_t xDelayedTaskList1;                         /*< Delayed tasks. */
 348:./Drivers/FreeRTOS/tasks.c **** PRIVILEGED_DATA static List_t xDelayedTaskList2;                         /*< Delayed tasks (two lis
 349:./Drivers/FreeRTOS/tasks.c **** PRIVILEGED_DATA static List_t * volatile pxDelayedTaskList;              /*< Points to the delayed 
 350:./Drivers/FreeRTOS/tasks.c **** PRIVILEGED_DATA static List_t * volatile pxOverflowDelayedTaskList;      /*< Points to the delayed 
 351:./Drivers/FreeRTOS/tasks.c **** PRIVILEGED_DATA static List_t xPendingReadyList;                         /*< Tasks that have been r
 352:./Drivers/FreeRTOS/tasks.c **** 
 353:./Drivers/FreeRTOS/tasks.c **** #if ( INCLUDE_vTaskDelete == 1 )
 354:./Drivers/FreeRTOS/tasks.c **** 
 355:./Drivers/FreeRTOS/tasks.c ****     PRIVILEGED_DATA static List_t xTasksWaitingTermination; /*< Tasks that have been deleted - but 
 356:./Drivers/FreeRTOS/tasks.c ****     PRIVILEGED_DATA static volatile UBaseType_t uxDeletedTasksWaitingCleanUp = ( UBaseType_t ) 0U;
 357:./Drivers/FreeRTOS/tasks.c **** 
 358:./Drivers/FreeRTOS/tasks.c **** #endif
 359:./Drivers/FreeRTOS/tasks.c **** 
 360:./Drivers/FreeRTOS/tasks.c **** #if ( INCLUDE_vTaskSuspend == 1 )
 361:./Drivers/FreeRTOS/tasks.c **** 
 362:./Drivers/FreeRTOS/tasks.c ****     PRIVILEGED_DATA static List_t xSuspendedTaskList; /*< Tasks that are currently suspended. */
 363:./Drivers/FreeRTOS/tasks.c **** 
 364:./Drivers/FreeRTOS/tasks.c **** #endif
 365:./Drivers/FreeRTOS/tasks.c **** 
 366:./Drivers/FreeRTOS/tasks.c **** /* Global POSIX errno. Its value is changed upon context switching to match
 367:./Drivers/FreeRTOS/tasks.c ****  * the errno of the currently running task. */
 368:./Drivers/FreeRTOS/tasks.c **** #if ( configUSE_POSIX_ERRNO == 1 )
 369:./Drivers/FreeRTOS/tasks.c ****     int FreeRTOS_errno = 0;
 370:./Drivers/FreeRTOS/tasks.c **** #endif
 371:./Drivers/FreeRTOS/tasks.c **** 
 372:./Drivers/FreeRTOS/tasks.c **** /* Other file private variables. --------------------------------*/
ARM GAS  C:\Users\Benson\AppData\Local\Temp\ccSM8CXv.s 			page 10


 373:./Drivers/FreeRTOS/tasks.c **** PRIVILEGED_DATA static volatile UBaseType_t uxCurrentNumberOfTasks = ( UBaseType_t ) 0U;
 374:./Drivers/FreeRTOS/tasks.c **** PRIVILEGED_DATA static volatile TickType_t xTickCount = ( TickType_t ) configINITIAL_TICK_COUNT;
 375:./Drivers/FreeRTOS/tasks.c **** PRIVILEGED_DATA static volatile UBaseType_t uxTopReadyPriority = tskIDLE_PRIORITY;
 376:./Drivers/FreeRTOS/tasks.c **** PRIVILEGED_DATA static volatile BaseType_t xSchedulerRunning = pdFALSE;
 377:./Drivers/FreeRTOS/tasks.c **** PRIVILEGED_DATA static volatile TickType_t xPendedTicks = ( TickType_t ) 0U;
 378:./Drivers/FreeRTOS/tasks.c **** PRIVILEGED_DATA static volatile BaseType_t xYieldPending = pdFALSE;
 379:./Drivers/FreeRTOS/tasks.c **** PRIVILEGED_DATA static volatile BaseType_t xNumOfOverflows = ( BaseType_t ) 0;
 380:./Drivers/FreeRTOS/tasks.c **** PRIVILEGED_DATA static UBaseType_t uxTaskNumber = ( UBaseType_t ) 0U;
 381:./Drivers/FreeRTOS/tasks.c **** PRIVILEGED_DATA static volatile TickType_t xNextTaskUnblockTime = ( TickType_t ) 0U; /* Initialised
 382:./Drivers/FreeRTOS/tasks.c **** PRIVILEGED_DATA static TaskHandle_t xIdleTaskHandle = NULL;                          /*< Holds the 
 383:./Drivers/FreeRTOS/tasks.c **** 
 384:./Drivers/FreeRTOS/tasks.c **** /* Improve support for OpenOCD. The kernel tracks Ready tasks via priority lists.
 385:./Drivers/FreeRTOS/tasks.c ****  * For tracking the state of remote threads, OpenOCD uses uxTopUsedPriority
 386:./Drivers/FreeRTOS/tasks.c ****  * to determine the number of priority lists to read back from the remote target. */
 387:./Drivers/FreeRTOS/tasks.c **** const volatile UBaseType_t uxTopUsedPriority = configMAX_PRIORITIES - 1U;
 388:./Drivers/FreeRTOS/tasks.c **** 
 389:./Drivers/FreeRTOS/tasks.c **** /* Context switches are held pending while the scheduler is suspended.  Also,
 390:./Drivers/FreeRTOS/tasks.c ****  * interrupts must not manipulate the xStateListItem of a TCB, or any of the
 391:./Drivers/FreeRTOS/tasks.c ****  * lists the xStateListItem can be referenced from, if the scheduler is suspended.
 392:./Drivers/FreeRTOS/tasks.c ****  * If an interrupt needs to unblock a task while the scheduler is suspended then it
 393:./Drivers/FreeRTOS/tasks.c ****  * moves the task's event list item into the xPendingReadyList, ready for the
 394:./Drivers/FreeRTOS/tasks.c ****  * kernel to move the task from the pending ready list into the real ready list
 395:./Drivers/FreeRTOS/tasks.c ****  * when the scheduler is unsuspended.  The pending ready list itself can only be
 396:./Drivers/FreeRTOS/tasks.c ****  * accessed from a critical section. */
 397:./Drivers/FreeRTOS/tasks.c **** PRIVILEGED_DATA static volatile UBaseType_t uxSchedulerSuspended = ( UBaseType_t ) pdFALSE;
 398:./Drivers/FreeRTOS/tasks.c **** 
 399:./Drivers/FreeRTOS/tasks.c **** #if ( configGENERATE_RUN_TIME_STATS == 1 )
 400:./Drivers/FreeRTOS/tasks.c **** 
 401:./Drivers/FreeRTOS/tasks.c **** /* Do not move these variables to function scope as doing so prevents the
 402:./Drivers/FreeRTOS/tasks.c ****  * code working with debuggers that need to remove the static qualifier. */
 403:./Drivers/FreeRTOS/tasks.c ****     PRIVILEGED_DATA static configRUN_TIME_COUNTER_TYPE ulTaskSwitchedInTime = 0UL;    /*< Holds the
 404:./Drivers/FreeRTOS/tasks.c ****     PRIVILEGED_DATA static volatile configRUN_TIME_COUNTER_TYPE ulTotalRunTime = 0UL; /*< Holds the
 405:./Drivers/FreeRTOS/tasks.c **** 
 406:./Drivers/FreeRTOS/tasks.c **** #endif
 407:./Drivers/FreeRTOS/tasks.c **** 
 408:./Drivers/FreeRTOS/tasks.c **** /*lint -restore */
 409:./Drivers/FreeRTOS/tasks.c **** 
 410:./Drivers/FreeRTOS/tasks.c **** /*-----------------------------------------------------------*/
 411:./Drivers/FreeRTOS/tasks.c **** 
 412:./Drivers/FreeRTOS/tasks.c **** /* File private functions. --------------------------------*/
 413:./Drivers/FreeRTOS/tasks.c **** 
 414:./Drivers/FreeRTOS/tasks.c **** /**
 415:./Drivers/FreeRTOS/tasks.c ****  * Utility task that simply returns pdTRUE if the task referenced by xTask is
 416:./Drivers/FreeRTOS/tasks.c ****  * currently in the Suspended state, or pdFALSE if the task referenced by xTask
 417:./Drivers/FreeRTOS/tasks.c ****  * is in any other state.
 418:./Drivers/FreeRTOS/tasks.c ****  */
 419:./Drivers/FreeRTOS/tasks.c **** #if ( INCLUDE_vTaskSuspend == 1 )
 420:./Drivers/FreeRTOS/tasks.c **** 
 421:./Drivers/FreeRTOS/tasks.c ****     static BaseType_t prvTaskIsTaskSuspended( const TaskHandle_t xTask ) PRIVILEGED_FUNCTION;
 422:./Drivers/FreeRTOS/tasks.c **** 
 423:./Drivers/FreeRTOS/tasks.c **** #endif /* INCLUDE_vTaskSuspend */
 424:./Drivers/FreeRTOS/tasks.c **** 
 425:./Drivers/FreeRTOS/tasks.c **** /*
 426:./Drivers/FreeRTOS/tasks.c ****  * Utility to ready all the lists used by the scheduler.  This is called
 427:./Drivers/FreeRTOS/tasks.c ****  * automatically upon the creation of the first task.
 428:./Drivers/FreeRTOS/tasks.c ****  */
 429:./Drivers/FreeRTOS/tasks.c **** static void prvInitialiseTaskLists( void ) PRIVILEGED_FUNCTION;
ARM GAS  C:\Users\Benson\AppData\Local\Temp\ccSM8CXv.s 			page 11


 430:./Drivers/FreeRTOS/tasks.c **** 
 431:./Drivers/FreeRTOS/tasks.c **** /*
 432:./Drivers/FreeRTOS/tasks.c ****  * The idle task, which as all tasks is implemented as a never ending loop.
 433:./Drivers/FreeRTOS/tasks.c ****  * The idle task is automatically created and added to the ready lists upon
 434:./Drivers/FreeRTOS/tasks.c ****  * creation of the first user task.
 435:./Drivers/FreeRTOS/tasks.c ****  *
 436:./Drivers/FreeRTOS/tasks.c ****  * The portTASK_FUNCTION_PROTO() macro is used to allow port/compiler specific
 437:./Drivers/FreeRTOS/tasks.c ****  * language extensions.  The equivalent prototype for this function is:
 438:./Drivers/FreeRTOS/tasks.c ****  *
 439:./Drivers/FreeRTOS/tasks.c ****  * void prvIdleTask( void *pvParameters );
 440:./Drivers/FreeRTOS/tasks.c ****  *
 441:./Drivers/FreeRTOS/tasks.c ****  */
 442:./Drivers/FreeRTOS/tasks.c **** static portTASK_FUNCTION_PROTO( prvIdleTask, pvParameters ) PRIVILEGED_FUNCTION;
 443:./Drivers/FreeRTOS/tasks.c **** 
 444:./Drivers/FreeRTOS/tasks.c **** /*
 445:./Drivers/FreeRTOS/tasks.c ****  * Utility to free all memory allocated by the scheduler to hold a TCB,
 446:./Drivers/FreeRTOS/tasks.c ****  * including the stack pointed to by the TCB.
 447:./Drivers/FreeRTOS/tasks.c ****  *
 448:./Drivers/FreeRTOS/tasks.c ****  * This does not free memory allocated by the task itself (i.e. memory
 449:./Drivers/FreeRTOS/tasks.c ****  * allocated by calls to pvPortMalloc from within the tasks application code).
 450:./Drivers/FreeRTOS/tasks.c ****  */
 451:./Drivers/FreeRTOS/tasks.c **** #if ( INCLUDE_vTaskDelete == 1 )
 452:./Drivers/FreeRTOS/tasks.c **** 
 453:./Drivers/FreeRTOS/tasks.c ****     static void prvDeleteTCB( TCB_t * pxTCB ) PRIVILEGED_FUNCTION;
 454:./Drivers/FreeRTOS/tasks.c **** 
 455:./Drivers/FreeRTOS/tasks.c **** #endif
 456:./Drivers/FreeRTOS/tasks.c **** 
 457:./Drivers/FreeRTOS/tasks.c **** /*
 458:./Drivers/FreeRTOS/tasks.c ****  * Used only by the idle task.  This checks to see if anything has been placed
 459:./Drivers/FreeRTOS/tasks.c ****  * in the list of tasks waiting to be deleted.  If so the task is cleaned up
 460:./Drivers/FreeRTOS/tasks.c ****  * and its TCB deleted.
 461:./Drivers/FreeRTOS/tasks.c ****  */
 462:./Drivers/FreeRTOS/tasks.c **** static void prvCheckTasksWaitingTermination( void ) PRIVILEGED_FUNCTION;
 463:./Drivers/FreeRTOS/tasks.c **** 
 464:./Drivers/FreeRTOS/tasks.c **** /*
 465:./Drivers/FreeRTOS/tasks.c ****  * The currently executing task is entering the Blocked state.  Add the task to
 466:./Drivers/FreeRTOS/tasks.c ****  * either the current or the overflow delayed task list.
 467:./Drivers/FreeRTOS/tasks.c ****  */
 468:./Drivers/FreeRTOS/tasks.c **** static void prvAddCurrentTaskToDelayedList( TickType_t xTicksToWait,
 469:./Drivers/FreeRTOS/tasks.c ****                                             const BaseType_t xCanBlockIndefinitely ) PRIVILEGED_FUN
 470:./Drivers/FreeRTOS/tasks.c **** 
 471:./Drivers/FreeRTOS/tasks.c **** /*
 472:./Drivers/FreeRTOS/tasks.c ****  * Fills an TaskStatus_t structure with information on each task that is
 473:./Drivers/FreeRTOS/tasks.c ****  * referenced from the pxList list (which may be a ready list, a delayed list,
 474:./Drivers/FreeRTOS/tasks.c ****  * a suspended list, etc.).
 475:./Drivers/FreeRTOS/tasks.c ****  *
 476:./Drivers/FreeRTOS/tasks.c ****  * THIS FUNCTION IS INTENDED FOR DEBUGGING ONLY, AND SHOULD NOT BE CALLED FROM
 477:./Drivers/FreeRTOS/tasks.c ****  * NORMAL APPLICATION CODE.
 478:./Drivers/FreeRTOS/tasks.c ****  */
 479:./Drivers/FreeRTOS/tasks.c **** #if ( configUSE_TRACE_FACILITY == 1 )
 480:./Drivers/FreeRTOS/tasks.c **** 
 481:./Drivers/FreeRTOS/tasks.c ****     static UBaseType_t prvListTasksWithinSingleList( TaskStatus_t * pxTaskStatusArray,
 482:./Drivers/FreeRTOS/tasks.c ****                                                      List_t * pxList,
 483:./Drivers/FreeRTOS/tasks.c ****                                                      eTaskState eState ) PRIVILEGED_FUNCTION;
 484:./Drivers/FreeRTOS/tasks.c **** 
 485:./Drivers/FreeRTOS/tasks.c **** #endif
 486:./Drivers/FreeRTOS/tasks.c **** 
ARM GAS  C:\Users\Benson\AppData\Local\Temp\ccSM8CXv.s 			page 12


 487:./Drivers/FreeRTOS/tasks.c **** /*
 488:./Drivers/FreeRTOS/tasks.c ****  * Searches pxList for a task with name pcNameToQuery - returning a handle to
 489:./Drivers/FreeRTOS/tasks.c ****  * the task if it is found, or NULL if the task is not found.
 490:./Drivers/FreeRTOS/tasks.c ****  */
 491:./Drivers/FreeRTOS/tasks.c **** #if ( INCLUDE_xTaskGetHandle == 1 )
 492:./Drivers/FreeRTOS/tasks.c **** 
 493:./Drivers/FreeRTOS/tasks.c ****     static TCB_t * prvSearchForNameWithinSingleList( List_t * pxList,
 494:./Drivers/FreeRTOS/tasks.c ****                                                      const char pcNameToQuery[] ) PRIVILEGED_FUNCTI
 495:./Drivers/FreeRTOS/tasks.c **** 
 496:./Drivers/FreeRTOS/tasks.c **** #endif
 497:./Drivers/FreeRTOS/tasks.c **** 
 498:./Drivers/FreeRTOS/tasks.c **** /*
 499:./Drivers/FreeRTOS/tasks.c ****  * When a task is created, the stack of the task is filled with a known value.
 500:./Drivers/FreeRTOS/tasks.c ****  * This function determines the 'high water mark' of the task stack by
 501:./Drivers/FreeRTOS/tasks.c ****  * determining how much of the stack remains at the original preset value.
 502:./Drivers/FreeRTOS/tasks.c ****  */
 503:./Drivers/FreeRTOS/tasks.c **** #if ( ( configUSE_TRACE_FACILITY == 1 ) || ( INCLUDE_uxTaskGetStackHighWaterMark == 1 ) || ( INCLUD
 504:./Drivers/FreeRTOS/tasks.c **** 
 505:./Drivers/FreeRTOS/tasks.c ****     static configSTACK_DEPTH_TYPE prvTaskCheckFreeStackSpace( const uint8_t * pucStackByte ) PRIVIL
 506:./Drivers/FreeRTOS/tasks.c **** 
 507:./Drivers/FreeRTOS/tasks.c **** #endif
 508:./Drivers/FreeRTOS/tasks.c **** 
 509:./Drivers/FreeRTOS/tasks.c **** /*
 510:./Drivers/FreeRTOS/tasks.c ****  * Return the amount of time, in ticks, that will pass before the kernel will
 511:./Drivers/FreeRTOS/tasks.c ****  * next move a task from the Blocked state to the Running state.
 512:./Drivers/FreeRTOS/tasks.c ****  *
 513:./Drivers/FreeRTOS/tasks.c ****  * This conditional compilation should use inequality to 0, not equality to 1.
 514:./Drivers/FreeRTOS/tasks.c ****  * This is to ensure portSUPPRESS_TICKS_AND_SLEEP() can be called when user
 515:./Drivers/FreeRTOS/tasks.c ****  * defined low power mode implementations require configUSE_TICKLESS_IDLE to be
 516:./Drivers/FreeRTOS/tasks.c ****  * set to a value other than 1.
 517:./Drivers/FreeRTOS/tasks.c ****  */
 518:./Drivers/FreeRTOS/tasks.c **** #if ( configUSE_TICKLESS_IDLE != 0 )
 519:./Drivers/FreeRTOS/tasks.c **** 
 520:./Drivers/FreeRTOS/tasks.c ****     static TickType_t prvGetExpectedIdleTime( void ) PRIVILEGED_FUNCTION;
 521:./Drivers/FreeRTOS/tasks.c **** 
 522:./Drivers/FreeRTOS/tasks.c **** #endif
 523:./Drivers/FreeRTOS/tasks.c **** 
 524:./Drivers/FreeRTOS/tasks.c **** /*
 525:./Drivers/FreeRTOS/tasks.c ****  * Set xNextTaskUnblockTime to the time at which the next Blocked state task
 526:./Drivers/FreeRTOS/tasks.c ****  * will exit the Blocked state.
 527:./Drivers/FreeRTOS/tasks.c ****  */
 528:./Drivers/FreeRTOS/tasks.c **** static void prvResetNextTaskUnblockTime( void ) PRIVILEGED_FUNCTION;
 529:./Drivers/FreeRTOS/tasks.c **** 
 530:./Drivers/FreeRTOS/tasks.c **** #if ( ( configUSE_TRACE_FACILITY == 1 ) && ( configUSE_STATS_FORMATTING_FUNCTIONS > 0 ) )
 531:./Drivers/FreeRTOS/tasks.c **** 
 532:./Drivers/FreeRTOS/tasks.c **** /*
 533:./Drivers/FreeRTOS/tasks.c ****  * Helper function used to pad task names with spaces when printing out
 534:./Drivers/FreeRTOS/tasks.c ****  * human readable tables of task information.
 535:./Drivers/FreeRTOS/tasks.c ****  */
 536:./Drivers/FreeRTOS/tasks.c ****     static char * prvWriteNameToBuffer( char * pcBuffer,
 537:./Drivers/FreeRTOS/tasks.c ****                                         const char * pcTaskName ) PRIVILEGED_FUNCTION;
 538:./Drivers/FreeRTOS/tasks.c **** 
 539:./Drivers/FreeRTOS/tasks.c **** #endif
 540:./Drivers/FreeRTOS/tasks.c **** 
 541:./Drivers/FreeRTOS/tasks.c **** /*
 542:./Drivers/FreeRTOS/tasks.c ****  * Called after a Task_t structure has been allocated either statically or
 543:./Drivers/FreeRTOS/tasks.c ****  * dynamically to fill in the structure's members.
ARM GAS  C:\Users\Benson\AppData\Local\Temp\ccSM8CXv.s 			page 13


 544:./Drivers/FreeRTOS/tasks.c ****  */
 545:./Drivers/FreeRTOS/tasks.c **** static void prvInitialiseNewTask( TaskFunction_t pxTaskCode,
 546:./Drivers/FreeRTOS/tasks.c ****                                   const char * const pcName, /*lint !e971 Unqualified char types ar
 547:./Drivers/FreeRTOS/tasks.c ****                                   const uint32_t ulStackDepth,
 548:./Drivers/FreeRTOS/tasks.c ****                                   void * const pvParameters,
 549:./Drivers/FreeRTOS/tasks.c ****                                   UBaseType_t uxPriority,
 550:./Drivers/FreeRTOS/tasks.c ****                                   TaskHandle_t * const pxCreatedTask,
 551:./Drivers/FreeRTOS/tasks.c ****                                   TCB_t * pxNewTCB,
 552:./Drivers/FreeRTOS/tasks.c ****                                   const MemoryRegion_t * const xRegions ) PRIVILEGED_FUNCTION;
 553:./Drivers/FreeRTOS/tasks.c **** 
 554:./Drivers/FreeRTOS/tasks.c **** /*
 555:./Drivers/FreeRTOS/tasks.c ****  * Called after a new task has been created and initialised to place the task
 556:./Drivers/FreeRTOS/tasks.c ****  * under the control of the scheduler.
 557:./Drivers/FreeRTOS/tasks.c ****  */
 558:./Drivers/FreeRTOS/tasks.c **** static void prvAddNewTaskToReadyList( TCB_t * pxNewTCB ) PRIVILEGED_FUNCTION;
 559:./Drivers/FreeRTOS/tasks.c **** 
 560:./Drivers/FreeRTOS/tasks.c **** /*
 561:./Drivers/FreeRTOS/tasks.c ****  * freertos_tasks_c_additions_init() should only be called if the user definable
 562:./Drivers/FreeRTOS/tasks.c ****  * macro FREERTOS_TASKS_C_ADDITIONS_INIT() is defined, as that is the only macro
 563:./Drivers/FreeRTOS/tasks.c ****  * called by the function.
 564:./Drivers/FreeRTOS/tasks.c ****  */
 565:./Drivers/FreeRTOS/tasks.c **** #ifdef FREERTOS_TASKS_C_ADDITIONS_INIT
 566:./Drivers/FreeRTOS/tasks.c **** 
 567:./Drivers/FreeRTOS/tasks.c ****     static void freertos_tasks_c_additions_init( void ) PRIVILEGED_FUNCTION;
 568:./Drivers/FreeRTOS/tasks.c **** 
 569:./Drivers/FreeRTOS/tasks.c **** #endif
 570:./Drivers/FreeRTOS/tasks.c **** 
 571:./Drivers/FreeRTOS/tasks.c **** /*-----------------------------------------------------------*/
 572:./Drivers/FreeRTOS/tasks.c **** 
 573:./Drivers/FreeRTOS/tasks.c **** #if ( configSUPPORT_STATIC_ALLOCATION == 1 )
 574:./Drivers/FreeRTOS/tasks.c **** 
 575:./Drivers/FreeRTOS/tasks.c ****     TaskHandle_t xTaskCreateStatic( TaskFunction_t pxTaskCode,
 576:./Drivers/FreeRTOS/tasks.c ****                                     const char * const pcName, /*lint !e971 Unqualified char types 
 577:./Drivers/FreeRTOS/tasks.c ****                                     const uint32_t ulStackDepth,
 578:./Drivers/FreeRTOS/tasks.c ****                                     void * const pvParameters,
 579:./Drivers/FreeRTOS/tasks.c ****                                     UBaseType_t uxPriority,
 580:./Drivers/FreeRTOS/tasks.c ****                                     StackType_t * const puxStackBuffer,
 581:./Drivers/FreeRTOS/tasks.c ****                                     StaticTask_t * const pxTaskBuffer )
 582:./Drivers/FreeRTOS/tasks.c ****     {
 583:./Drivers/FreeRTOS/tasks.c ****         TCB_t * pxNewTCB;
 584:./Drivers/FreeRTOS/tasks.c ****         TaskHandle_t xReturn;
 585:./Drivers/FreeRTOS/tasks.c **** 
 586:./Drivers/FreeRTOS/tasks.c ****         configASSERT( puxStackBuffer != NULL );
 587:./Drivers/FreeRTOS/tasks.c ****         configASSERT( pxTaskBuffer != NULL );
 588:./Drivers/FreeRTOS/tasks.c **** 
 589:./Drivers/FreeRTOS/tasks.c ****         #if ( configASSERT_DEFINED == 1 )
 590:./Drivers/FreeRTOS/tasks.c ****             {
 591:./Drivers/FreeRTOS/tasks.c ****                 /* Sanity check that the size of the structure used to declare a
 592:./Drivers/FreeRTOS/tasks.c ****                  * variable of type StaticTask_t equals the size of the real task
 593:./Drivers/FreeRTOS/tasks.c ****                  * structure. */
 594:./Drivers/FreeRTOS/tasks.c ****                 volatile size_t xSize = sizeof( StaticTask_t );
 595:./Drivers/FreeRTOS/tasks.c ****                 configASSERT( xSize == sizeof( TCB_t ) );
 596:./Drivers/FreeRTOS/tasks.c ****                 ( void ) xSize; /* Prevent lint warning when configASSERT() is not used. */
 597:./Drivers/FreeRTOS/tasks.c ****             }
 598:./Drivers/FreeRTOS/tasks.c ****         #endif /* configASSERT_DEFINED */
 599:./Drivers/FreeRTOS/tasks.c **** 
 600:./Drivers/FreeRTOS/tasks.c ****         if( ( pxTaskBuffer != NULL ) && ( puxStackBuffer != NULL ) )
ARM GAS  C:\Users\Benson\AppData\Local\Temp\ccSM8CXv.s 			page 14


 601:./Drivers/FreeRTOS/tasks.c ****         {
 602:./Drivers/FreeRTOS/tasks.c ****             /* The memory used for the task's TCB and stack are passed into this
 603:./Drivers/FreeRTOS/tasks.c ****              * function - use them. */
 604:./Drivers/FreeRTOS/tasks.c ****             pxNewTCB = ( TCB_t * ) pxTaskBuffer; /*lint !e740 !e9087 Unusual cast is ok as the stru
 605:./Drivers/FreeRTOS/tasks.c ****             pxNewTCB->pxStack = ( StackType_t * ) puxStackBuffer;
 606:./Drivers/FreeRTOS/tasks.c **** 
 607:./Drivers/FreeRTOS/tasks.c ****             #if ( tskSTATIC_AND_DYNAMIC_ALLOCATION_POSSIBLE != 0 ) /*lint !e731 !e9029 Macro has be
 608:./Drivers/FreeRTOS/tasks.c ****                 {
 609:./Drivers/FreeRTOS/tasks.c ****                     /* Tasks can be created statically or dynamically, so note this
 610:./Drivers/FreeRTOS/tasks.c ****                      * task was created statically in case the task is later deleted. */
 611:./Drivers/FreeRTOS/tasks.c ****                     pxNewTCB->ucStaticallyAllocated = tskSTATICALLY_ALLOCATED_STACK_AND_TCB;
 612:./Drivers/FreeRTOS/tasks.c ****                 }
 613:./Drivers/FreeRTOS/tasks.c ****             #endif /* tskSTATIC_AND_DYNAMIC_ALLOCATION_POSSIBLE */
 614:./Drivers/FreeRTOS/tasks.c **** 
 615:./Drivers/FreeRTOS/tasks.c ****             prvInitialiseNewTask( pxTaskCode, pcName, ulStackDepth, pvParameters, uxPriority, &xRet
 616:./Drivers/FreeRTOS/tasks.c ****             prvAddNewTaskToReadyList( pxNewTCB );
 617:./Drivers/FreeRTOS/tasks.c ****         }
 618:./Drivers/FreeRTOS/tasks.c ****         else
 619:./Drivers/FreeRTOS/tasks.c ****         {
 620:./Drivers/FreeRTOS/tasks.c ****             xReturn = NULL;
 621:./Drivers/FreeRTOS/tasks.c ****         }
 622:./Drivers/FreeRTOS/tasks.c **** 
 623:./Drivers/FreeRTOS/tasks.c ****         return xReturn;
 624:./Drivers/FreeRTOS/tasks.c ****     }
 625:./Drivers/FreeRTOS/tasks.c **** 
 626:./Drivers/FreeRTOS/tasks.c **** #endif /* SUPPORT_STATIC_ALLOCATION */
 627:./Drivers/FreeRTOS/tasks.c **** /*-----------------------------------------------------------*/
 628:./Drivers/FreeRTOS/tasks.c **** 
 629:./Drivers/FreeRTOS/tasks.c **** #if ( ( portUSING_MPU_WRAPPERS == 1 ) && ( configSUPPORT_STATIC_ALLOCATION == 1 ) )
 630:./Drivers/FreeRTOS/tasks.c **** 
 631:./Drivers/FreeRTOS/tasks.c ****     BaseType_t xTaskCreateRestrictedStatic( const TaskParameters_t * const pxTaskDefinition,
 632:./Drivers/FreeRTOS/tasks.c ****                                             TaskHandle_t * pxCreatedTask )
 633:./Drivers/FreeRTOS/tasks.c ****     {
 634:./Drivers/FreeRTOS/tasks.c ****         TCB_t * pxNewTCB;
 635:./Drivers/FreeRTOS/tasks.c ****         BaseType_t xReturn = errCOULD_NOT_ALLOCATE_REQUIRED_MEMORY;
 636:./Drivers/FreeRTOS/tasks.c **** 
 637:./Drivers/FreeRTOS/tasks.c ****         configASSERT( pxTaskDefinition->puxStackBuffer != NULL );
 638:./Drivers/FreeRTOS/tasks.c ****         configASSERT( pxTaskDefinition->pxTaskBuffer != NULL );
 639:./Drivers/FreeRTOS/tasks.c **** 
 640:./Drivers/FreeRTOS/tasks.c ****         if( ( pxTaskDefinition->puxStackBuffer != NULL ) && ( pxTaskDefinition->pxTaskBuffer != NUL
 641:./Drivers/FreeRTOS/tasks.c ****         {
 642:./Drivers/FreeRTOS/tasks.c ****             /* Allocate space for the TCB.  Where the memory comes from depends
 643:./Drivers/FreeRTOS/tasks.c ****              * on the implementation of the port malloc function and whether or
 644:./Drivers/FreeRTOS/tasks.c ****              * not static allocation is being used. */
 645:./Drivers/FreeRTOS/tasks.c ****             pxNewTCB = ( TCB_t * ) pxTaskDefinition->pxTaskBuffer;
 646:./Drivers/FreeRTOS/tasks.c **** 
 647:./Drivers/FreeRTOS/tasks.c ****             /* Store the stack location in the TCB. */
 648:./Drivers/FreeRTOS/tasks.c ****             pxNewTCB->pxStack = pxTaskDefinition->puxStackBuffer;
 649:./Drivers/FreeRTOS/tasks.c **** 
 650:./Drivers/FreeRTOS/tasks.c ****             #if ( tskSTATIC_AND_DYNAMIC_ALLOCATION_POSSIBLE != 0 )
 651:./Drivers/FreeRTOS/tasks.c ****                 {
 652:./Drivers/FreeRTOS/tasks.c ****                     /* Tasks can be created statically or dynamically, so note this
 653:./Drivers/FreeRTOS/tasks.c ****                      * task was created statically in case the task is later deleted. */
 654:./Drivers/FreeRTOS/tasks.c ****                     pxNewTCB->ucStaticallyAllocated = tskSTATICALLY_ALLOCATED_STACK_AND_TCB;
 655:./Drivers/FreeRTOS/tasks.c ****                 }
 656:./Drivers/FreeRTOS/tasks.c ****             #endif /* tskSTATIC_AND_DYNAMIC_ALLOCATION_POSSIBLE */
 657:./Drivers/FreeRTOS/tasks.c **** 
ARM GAS  C:\Users\Benson\AppData\Local\Temp\ccSM8CXv.s 			page 15


 658:./Drivers/FreeRTOS/tasks.c ****             prvInitialiseNewTask( pxTaskDefinition->pvTaskCode,
 659:./Drivers/FreeRTOS/tasks.c ****                                   pxTaskDefinition->pcName,
 660:./Drivers/FreeRTOS/tasks.c ****                                   ( uint32_t ) pxTaskDefinition->usStackDepth,
 661:./Drivers/FreeRTOS/tasks.c ****                                   pxTaskDefinition->pvParameters,
 662:./Drivers/FreeRTOS/tasks.c ****                                   pxTaskDefinition->uxPriority,
 663:./Drivers/FreeRTOS/tasks.c ****                                   pxCreatedTask, pxNewTCB,
 664:./Drivers/FreeRTOS/tasks.c ****                                   pxTaskDefinition->xRegions );
 665:./Drivers/FreeRTOS/tasks.c **** 
 666:./Drivers/FreeRTOS/tasks.c ****             prvAddNewTaskToReadyList( pxNewTCB );
 667:./Drivers/FreeRTOS/tasks.c ****             xReturn = pdPASS;
 668:./Drivers/FreeRTOS/tasks.c ****         }
 669:./Drivers/FreeRTOS/tasks.c **** 
 670:./Drivers/FreeRTOS/tasks.c ****         return xReturn;
 671:./Drivers/FreeRTOS/tasks.c ****     }
 672:./Drivers/FreeRTOS/tasks.c **** 
 673:./Drivers/FreeRTOS/tasks.c **** #endif /* ( portUSING_MPU_WRAPPERS == 1 ) && ( configSUPPORT_STATIC_ALLOCATION == 1 ) */
 674:./Drivers/FreeRTOS/tasks.c **** /*-----------------------------------------------------------*/
 675:./Drivers/FreeRTOS/tasks.c **** 
 676:./Drivers/FreeRTOS/tasks.c **** #if ( ( portUSING_MPU_WRAPPERS == 1 ) && ( configSUPPORT_DYNAMIC_ALLOCATION == 1 ) )
 677:./Drivers/FreeRTOS/tasks.c **** 
 678:./Drivers/FreeRTOS/tasks.c ****     BaseType_t xTaskCreateRestricted( const TaskParameters_t * const pxTaskDefinition,
 679:./Drivers/FreeRTOS/tasks.c ****                                       TaskHandle_t * pxCreatedTask )
 680:./Drivers/FreeRTOS/tasks.c ****     {
 681:./Drivers/FreeRTOS/tasks.c ****         TCB_t * pxNewTCB;
 682:./Drivers/FreeRTOS/tasks.c ****         BaseType_t xReturn = errCOULD_NOT_ALLOCATE_REQUIRED_MEMORY;
 683:./Drivers/FreeRTOS/tasks.c **** 
 684:./Drivers/FreeRTOS/tasks.c ****         configASSERT( pxTaskDefinition->puxStackBuffer );
 685:./Drivers/FreeRTOS/tasks.c **** 
 686:./Drivers/FreeRTOS/tasks.c ****         if( pxTaskDefinition->puxStackBuffer != NULL )
 687:./Drivers/FreeRTOS/tasks.c ****         {
 688:./Drivers/FreeRTOS/tasks.c ****             /* Allocate space for the TCB.  Where the memory comes from depends
 689:./Drivers/FreeRTOS/tasks.c ****              * on the implementation of the port malloc function and whether or
 690:./Drivers/FreeRTOS/tasks.c ****              * not static allocation is being used. */
 691:./Drivers/FreeRTOS/tasks.c ****             pxNewTCB = ( TCB_t * ) pvPortMalloc( sizeof( TCB_t ) );
 692:./Drivers/FreeRTOS/tasks.c **** 
 693:./Drivers/FreeRTOS/tasks.c ****             if( pxNewTCB != NULL )
 694:./Drivers/FreeRTOS/tasks.c ****             {
 695:./Drivers/FreeRTOS/tasks.c ****                 /* Store the stack location in the TCB. */
 696:./Drivers/FreeRTOS/tasks.c ****                 pxNewTCB->pxStack = pxTaskDefinition->puxStackBuffer;
 697:./Drivers/FreeRTOS/tasks.c **** 
 698:./Drivers/FreeRTOS/tasks.c ****                 #if ( tskSTATIC_AND_DYNAMIC_ALLOCATION_POSSIBLE != 0 )
 699:./Drivers/FreeRTOS/tasks.c ****                     {
 700:./Drivers/FreeRTOS/tasks.c ****                         /* Tasks can be created statically or dynamically, so note
 701:./Drivers/FreeRTOS/tasks.c ****                          * this task had a statically allocated stack in case it is
 702:./Drivers/FreeRTOS/tasks.c ****                          * later deleted.  The TCB was allocated dynamically. */
 703:./Drivers/FreeRTOS/tasks.c ****                         pxNewTCB->ucStaticallyAllocated = tskSTATICALLY_ALLOCATED_STACK_ONLY;
 704:./Drivers/FreeRTOS/tasks.c ****                     }
 705:./Drivers/FreeRTOS/tasks.c ****                 #endif /* tskSTATIC_AND_DYNAMIC_ALLOCATION_POSSIBLE */
 706:./Drivers/FreeRTOS/tasks.c **** 
 707:./Drivers/FreeRTOS/tasks.c ****                 prvInitialiseNewTask( pxTaskDefinition->pvTaskCode,
 708:./Drivers/FreeRTOS/tasks.c ****                                       pxTaskDefinition->pcName,
 709:./Drivers/FreeRTOS/tasks.c ****                                       ( uint32_t ) pxTaskDefinition->usStackDepth,
 710:./Drivers/FreeRTOS/tasks.c ****                                       pxTaskDefinition->pvParameters,
 711:./Drivers/FreeRTOS/tasks.c ****                                       pxTaskDefinition->uxPriority,
 712:./Drivers/FreeRTOS/tasks.c ****                                       pxCreatedTask, pxNewTCB,
 713:./Drivers/FreeRTOS/tasks.c ****                                       pxTaskDefinition->xRegions );
 714:./Drivers/FreeRTOS/tasks.c **** 
ARM GAS  C:\Users\Benson\AppData\Local\Temp\ccSM8CXv.s 			page 16


 715:./Drivers/FreeRTOS/tasks.c ****                 prvAddNewTaskToReadyList( pxNewTCB );
 716:./Drivers/FreeRTOS/tasks.c ****                 xReturn = pdPASS;
 717:./Drivers/FreeRTOS/tasks.c ****             }
 718:./Drivers/FreeRTOS/tasks.c ****         }
 719:./Drivers/FreeRTOS/tasks.c **** 
 720:./Drivers/FreeRTOS/tasks.c ****         return xReturn;
 721:./Drivers/FreeRTOS/tasks.c ****     }
 722:./Drivers/FreeRTOS/tasks.c **** 
 723:./Drivers/FreeRTOS/tasks.c **** #endif /* portUSING_MPU_WRAPPERS */
 724:./Drivers/FreeRTOS/tasks.c **** /*-----------------------------------------------------------*/
 725:./Drivers/FreeRTOS/tasks.c **** 
 726:./Drivers/FreeRTOS/tasks.c **** #if ( configSUPPORT_DYNAMIC_ALLOCATION == 1 )
 727:./Drivers/FreeRTOS/tasks.c **** 
 728:./Drivers/FreeRTOS/tasks.c ****     BaseType_t xTaskCreate( TaskFunction_t pxTaskCode,
 729:./Drivers/FreeRTOS/tasks.c ****                             const char * const pcName, /*lint !e971 Unqualified char types are allo
 730:./Drivers/FreeRTOS/tasks.c ****                             const configSTACK_DEPTH_TYPE usStackDepth,
 731:./Drivers/FreeRTOS/tasks.c ****                             void * const pvParameters,
 732:./Drivers/FreeRTOS/tasks.c ****                             UBaseType_t uxPriority,
 733:./Drivers/FreeRTOS/tasks.c ****                             TaskHandle_t * const pxCreatedTask )
 734:./Drivers/FreeRTOS/tasks.c ****     {
 163              		.loc 1 734 5
 164              		.cfi_startproc
 165              		@ args = 8, pretend = 0, frame = 32
 166              		@ frame_needed = 1, uses_anonymous_args = 0
 167 0000 80B5     		push	{r7, lr}
 168              	.LCFI0:
 169              		.cfi_def_cfa_offset 8
 170              		.cfi_offset 7, -8
 171              		.cfi_offset 14, -4
 172 0002 8CB0     		sub	sp, sp, #48
 173              	.LCFI1:
 174              		.cfi_def_cfa_offset 56
 175 0004 04AF     		add	r7, sp, #16
 176              	.LCFI2:
 177              		.cfi_def_cfa 7, 40
 178 0006 F860     		str	r0, [r7, #12]
 179 0008 B960     		str	r1, [r7, #8]
 180 000a 3B60     		str	r3, [r7]
 181 000c 1346     		mov	r3, r2	@ movhi
 182 000e FB80     		strh	r3, [r7, #6]	@ movhi
 183              	.LBB155:
 735:./Drivers/FreeRTOS/tasks.c ****         TCB_t * pxNewTCB;
 736:./Drivers/FreeRTOS/tasks.c ****         BaseType_t xReturn;
 737:./Drivers/FreeRTOS/tasks.c **** 
 738:./Drivers/FreeRTOS/tasks.c ****         /* If the stack grows down then allocate the stack then the TCB so the stack
 739:./Drivers/FreeRTOS/tasks.c ****          * does not grow into the TCB.  Likewise if the stack grows up then allocate
 740:./Drivers/FreeRTOS/tasks.c ****          * the TCB then the stack. */
 741:./Drivers/FreeRTOS/tasks.c ****         #if ( portSTACK_GROWTH > 0 )
 742:./Drivers/FreeRTOS/tasks.c ****             {
 743:./Drivers/FreeRTOS/tasks.c ****                 /* Allocate space for the TCB.  Where the memory comes from depends on
 744:./Drivers/FreeRTOS/tasks.c ****                  * the implementation of the port malloc function and whether or not static
 745:./Drivers/FreeRTOS/tasks.c ****                  * allocation is being used. */
 746:./Drivers/FreeRTOS/tasks.c ****                 pxNewTCB = ( TCB_t * ) pvPortMalloc( sizeof( TCB_t ) );
 747:./Drivers/FreeRTOS/tasks.c **** 
 748:./Drivers/FreeRTOS/tasks.c ****                 if( pxNewTCB != NULL )
 749:./Drivers/FreeRTOS/tasks.c ****                 {
 750:./Drivers/FreeRTOS/tasks.c ****                     /* Allocate space for the stack used by the task being created.
ARM GAS  C:\Users\Benson\AppData\Local\Temp\ccSM8CXv.s 			page 17


 751:./Drivers/FreeRTOS/tasks.c ****                      * The base of the stack memory stored in the TCB so the task can
 752:./Drivers/FreeRTOS/tasks.c ****                      * be deleted later if required. */
 753:./Drivers/FreeRTOS/tasks.c ****                     pxNewTCB->pxStack = ( StackType_t * ) pvPortMallocStack( ( ( ( size_t ) usStack
 754:./Drivers/FreeRTOS/tasks.c **** 
 755:./Drivers/FreeRTOS/tasks.c ****                     if( pxNewTCB->pxStack == NULL )
 756:./Drivers/FreeRTOS/tasks.c ****                     {
 757:./Drivers/FreeRTOS/tasks.c ****                         /* Could not allocate the stack.  Delete the allocated TCB. */
 758:./Drivers/FreeRTOS/tasks.c ****                         vPortFree( pxNewTCB );
 759:./Drivers/FreeRTOS/tasks.c ****                         pxNewTCB = NULL;
 760:./Drivers/FreeRTOS/tasks.c ****                     }
 761:./Drivers/FreeRTOS/tasks.c ****                 }
 762:./Drivers/FreeRTOS/tasks.c ****             }
 763:./Drivers/FreeRTOS/tasks.c ****         #else /* portSTACK_GROWTH */
 764:./Drivers/FreeRTOS/tasks.c ****             {
 765:./Drivers/FreeRTOS/tasks.c ****                 StackType_t * pxStack;
 766:./Drivers/FreeRTOS/tasks.c **** 
 767:./Drivers/FreeRTOS/tasks.c ****                 /* Allocate space for the stack used by the task being created. */
 768:./Drivers/FreeRTOS/tasks.c ****                 pxStack = pvPortMallocStack( ( ( ( size_t ) usStackDepth ) * sizeof( StackType_t ) 
 184              		.loc 1 768 50
 185 0010 FB88     		ldrh	r3, [r7, #6]
 186              		.loc 1 768 27
 187 0012 9B00     		lsls	r3, r3, #2
 188 0014 1846     		mov	r0, r3
 189 0016 FFF7FEFF 		bl	pvPortMalloc
 190 001a 7861     		str	r0, [r7, #20]
 769:./Drivers/FreeRTOS/tasks.c **** 
 770:./Drivers/FreeRTOS/tasks.c ****                 if( pxStack != NULL )
 191              		.loc 1 770 19
 192 001c 7B69     		ldr	r3, [r7, #20]
 193 001e 002B     		cmp	r3, #0
 194 0020 0ED0     		beq	.L2
 771:./Drivers/FreeRTOS/tasks.c ****                 {
 772:./Drivers/FreeRTOS/tasks.c ****                     /* Allocate space for the TCB. */
 773:./Drivers/FreeRTOS/tasks.c ****                     pxNewTCB = ( TCB_t * ) pvPortMalloc( sizeof( TCB_t ) ); /*lint !e9087 !e9079 Al
 195              		.loc 1 773 44
 196 0022 5820     		movs	r0, #88
 197 0024 FFF7FEFF 		bl	pvPortMalloc
 198 0028 F861     		str	r0, [r7, #28]
 774:./Drivers/FreeRTOS/tasks.c **** 
 775:./Drivers/FreeRTOS/tasks.c ****                     if( pxNewTCB != NULL )
 199              		.loc 1 775 23
 200 002a FB69     		ldr	r3, [r7, #28]
 201 002c 002B     		cmp	r3, #0
 202 002e 03D0     		beq	.L3
 776:./Drivers/FreeRTOS/tasks.c ****                     {
 777:./Drivers/FreeRTOS/tasks.c ****                         /* Store the stack location in the TCB. */
 778:./Drivers/FreeRTOS/tasks.c ****                         pxNewTCB->pxStack = pxStack;
 203              		.loc 1 778 43
 204 0030 FB69     		ldr	r3, [r7, #28]
 205 0032 7A69     		ldr	r2, [r7, #20]
 206 0034 1A63     		str	r2, [r3, #48]
 207 0036 05E0     		b	.L4
 208              	.L3:
 779:./Drivers/FreeRTOS/tasks.c ****                     }
 780:./Drivers/FreeRTOS/tasks.c ****                     else
 781:./Drivers/FreeRTOS/tasks.c ****                     {
 782:./Drivers/FreeRTOS/tasks.c ****                         /* The stack cannot be used as the TCB was not created.  Free
ARM GAS  C:\Users\Benson\AppData\Local\Temp\ccSM8CXv.s 			page 18


 783:./Drivers/FreeRTOS/tasks.c ****                          * it again. */
 784:./Drivers/FreeRTOS/tasks.c ****                         vPortFreeStack( pxStack );
 209              		.loc 1 784 25
 210 0038 7869     		ldr	r0, [r7, #20]
 211 003a FFF7FEFF 		bl	vPortFree
 212 003e 01E0     		b	.L4
 213              	.L2:
 785:./Drivers/FreeRTOS/tasks.c ****                     }
 786:./Drivers/FreeRTOS/tasks.c ****                 }
 787:./Drivers/FreeRTOS/tasks.c ****                 else
 788:./Drivers/FreeRTOS/tasks.c ****                 {
 789:./Drivers/FreeRTOS/tasks.c ****                     pxNewTCB = NULL;
 214              		.loc 1 789 30
 215 0040 0023     		movs	r3, #0
 216 0042 FB61     		str	r3, [r7, #28]
 217              	.L4:
 218              	.LBE155:
 790:./Drivers/FreeRTOS/tasks.c ****                 }
 791:./Drivers/FreeRTOS/tasks.c ****             }
 792:./Drivers/FreeRTOS/tasks.c ****         #endif /* portSTACK_GROWTH */
 793:./Drivers/FreeRTOS/tasks.c **** 
 794:./Drivers/FreeRTOS/tasks.c ****         if( pxNewTCB != NULL )
 219              		.loc 1 794 11
 220 0044 FB69     		ldr	r3, [r7, #28]
 221 0046 002B     		cmp	r3, #0
 222 0048 13D0     		beq	.L5
 795:./Drivers/FreeRTOS/tasks.c ****         {
 796:./Drivers/FreeRTOS/tasks.c ****             #if ( tskSTATIC_AND_DYNAMIC_ALLOCATION_POSSIBLE != 0 ) /*lint !e9029 !e731 Macro has be
 797:./Drivers/FreeRTOS/tasks.c ****                 {
 798:./Drivers/FreeRTOS/tasks.c ****                     /* Tasks can be created statically or dynamically, so note this
 799:./Drivers/FreeRTOS/tasks.c ****                      * task was created dynamically in case it is later deleted. */
 800:./Drivers/FreeRTOS/tasks.c ****                     pxNewTCB->ucStaticallyAllocated = tskDYNAMICALLY_ALLOCATED_STACK_AND_TCB;
 801:./Drivers/FreeRTOS/tasks.c ****                 }
 802:./Drivers/FreeRTOS/tasks.c ****             #endif /* tskSTATIC_AND_DYNAMIC_ALLOCATION_POSSIBLE */
 803:./Drivers/FreeRTOS/tasks.c **** 
 804:./Drivers/FreeRTOS/tasks.c ****             prvInitialiseNewTask( pxTaskCode, pcName, ( uint32_t ) usStackDepth, pvParameters, uxPr
 223              		.loc 1 804 13
 224 004a FA88     		ldrh	r2, [r7, #6]
 225 004c 0023     		movs	r3, #0
 226 004e 0393     		str	r3, [sp, #12]
 227 0050 FB69     		ldr	r3, [r7, #28]
 228 0052 0293     		str	r3, [sp, #8]
 229 0054 FB6A     		ldr	r3, [r7, #44]
 230 0056 0193     		str	r3, [sp, #4]
 231 0058 BB6A     		ldr	r3, [r7, #40]
 232 005a 0093     		str	r3, [sp]
 233 005c 3B68     		ldr	r3, [r7]
 234 005e B968     		ldr	r1, [r7, #8]
 235 0060 F868     		ldr	r0, [r7, #12]
 236 0062 FFF7FEFF 		bl	prvInitialiseNewTask
 805:./Drivers/FreeRTOS/tasks.c ****             prvAddNewTaskToReadyList( pxNewTCB );
 237              		.loc 1 805 13
 238 0066 F869     		ldr	r0, [r7, #28]
 239 0068 FFF7FEFF 		bl	prvAddNewTaskToReadyList
 806:./Drivers/FreeRTOS/tasks.c ****             xReturn = pdPASS;
 240              		.loc 1 806 21
 241 006c 0123     		movs	r3, #1
ARM GAS  C:\Users\Benson\AppData\Local\Temp\ccSM8CXv.s 			page 19


 242 006e BB61     		str	r3, [r7, #24]
 243 0070 02E0     		b	.L6
 244              	.L5:
 807:./Drivers/FreeRTOS/tasks.c ****         }
 808:./Drivers/FreeRTOS/tasks.c ****         else
 809:./Drivers/FreeRTOS/tasks.c ****         {
 810:./Drivers/FreeRTOS/tasks.c ****             xReturn = errCOULD_NOT_ALLOCATE_REQUIRED_MEMORY;
 245              		.loc 1 810 21
 246 0072 4FF0FF33 		mov	r3, #-1
 247 0076 BB61     		str	r3, [r7, #24]
 248              	.L6:
 811:./Drivers/FreeRTOS/tasks.c ****         }
 812:./Drivers/FreeRTOS/tasks.c **** 
 813:./Drivers/FreeRTOS/tasks.c ****         return xReturn;
 249              		.loc 1 813 16
 250 0078 BB69     		ldr	r3, [r7, #24]
 814:./Drivers/FreeRTOS/tasks.c ****     }
 251              		.loc 1 814 5
 252 007a 1846     		mov	r0, r3
 253 007c 2037     		adds	r7, r7, #32
 254              	.LCFI3:
 255              		.cfi_def_cfa_offset 8
 256 007e BD46     		mov	sp, r7
 257              	.LCFI4:
 258              		.cfi_def_cfa_register 13
 259              		@ sp needed
 260 0080 80BD     		pop	{r7, pc}
 261              		.cfi_endproc
 262              	.LFE5:
 264              		.section	.text.prvInitialiseNewTask,"ax",%progbits
 265              		.align	1
 266              		.syntax unified
 267              		.thumb
 268              		.thumb_func
 269              		.fpu fpv4-sp-d16
 271              	prvInitialiseNewTask:
 272              	.LFB6:
 815:./Drivers/FreeRTOS/tasks.c **** 
 816:./Drivers/FreeRTOS/tasks.c **** #endif /* configSUPPORT_DYNAMIC_ALLOCATION */
 817:./Drivers/FreeRTOS/tasks.c **** /*-----------------------------------------------------------*/
 818:./Drivers/FreeRTOS/tasks.c **** 
 819:./Drivers/FreeRTOS/tasks.c **** static void prvInitialiseNewTask( TaskFunction_t pxTaskCode,
 820:./Drivers/FreeRTOS/tasks.c ****                                   const char * const pcName, /*lint !e971 Unqualified char types ar
 821:./Drivers/FreeRTOS/tasks.c ****                                   const uint32_t ulStackDepth,
 822:./Drivers/FreeRTOS/tasks.c ****                                   void * const pvParameters,
 823:./Drivers/FreeRTOS/tasks.c ****                                   UBaseType_t uxPriority,
 824:./Drivers/FreeRTOS/tasks.c ****                                   TaskHandle_t * const pxCreatedTask,
 825:./Drivers/FreeRTOS/tasks.c ****                                   TCB_t * pxNewTCB,
 826:./Drivers/FreeRTOS/tasks.c ****                                   const MemoryRegion_t * const xRegions )
 827:./Drivers/FreeRTOS/tasks.c **** {
 273              		.loc 1 827 1
 274              		.cfi_startproc
 275              		@ args = 16, pretend = 0, frame = 32
 276              		@ frame_needed = 1, uses_anonymous_args = 0
 277 0000 80B5     		push	{r7, lr}
 278              	.LCFI5:
 279              		.cfi_def_cfa_offset 8
ARM GAS  C:\Users\Benson\AppData\Local\Temp\ccSM8CXv.s 			page 20


 280              		.cfi_offset 7, -8
 281              		.cfi_offset 14, -4
 282 0002 88B0     		sub	sp, sp, #32
 283              	.LCFI6:
 284              		.cfi_def_cfa_offset 40
 285 0004 00AF     		add	r7, sp, #0
 286              	.LCFI7:
 287              		.cfi_def_cfa_register 7
 288 0006 F860     		str	r0, [r7, #12]
 289 0008 B960     		str	r1, [r7, #8]
 290 000a 7A60     		str	r2, [r7, #4]
 291 000c 3B60     		str	r3, [r7]
 828:./Drivers/FreeRTOS/tasks.c ****     StackType_t * pxTopOfStack;
 829:./Drivers/FreeRTOS/tasks.c ****     UBaseType_t x;
 830:./Drivers/FreeRTOS/tasks.c **** 
 831:./Drivers/FreeRTOS/tasks.c ****     #if ( portUSING_MPU_WRAPPERS == 1 )
 832:./Drivers/FreeRTOS/tasks.c ****         /* Should the task be created in privileged mode? */
 833:./Drivers/FreeRTOS/tasks.c ****         BaseType_t xRunPrivileged;
 834:./Drivers/FreeRTOS/tasks.c **** 
 835:./Drivers/FreeRTOS/tasks.c ****         if( ( uxPriority & portPRIVILEGE_BIT ) != 0U )
 836:./Drivers/FreeRTOS/tasks.c ****         {
 837:./Drivers/FreeRTOS/tasks.c ****             xRunPrivileged = pdTRUE;
 838:./Drivers/FreeRTOS/tasks.c ****         }
 839:./Drivers/FreeRTOS/tasks.c ****         else
 840:./Drivers/FreeRTOS/tasks.c ****         {
 841:./Drivers/FreeRTOS/tasks.c ****             xRunPrivileged = pdFALSE;
 842:./Drivers/FreeRTOS/tasks.c ****         }
 843:./Drivers/FreeRTOS/tasks.c ****         uxPriority &= ~portPRIVILEGE_BIT;
 844:./Drivers/FreeRTOS/tasks.c ****     #endif /* portUSING_MPU_WRAPPERS == 1 */
 845:./Drivers/FreeRTOS/tasks.c **** 
 846:./Drivers/FreeRTOS/tasks.c ****     /* Avoid dependency on memset() if it is not required. */
 847:./Drivers/FreeRTOS/tasks.c ****     #if ( tskSET_NEW_STACKS_TO_KNOWN_VALUE == 1 )
 848:./Drivers/FreeRTOS/tasks.c ****         {
 849:./Drivers/FreeRTOS/tasks.c ****             /* Fill the stack with a known value to assist debugging. */
 850:./Drivers/FreeRTOS/tasks.c ****             ( void ) memset( pxNewTCB->pxStack, ( int ) tskSTACK_FILL_BYTE, ( size_t ) ulStackDepth
 292              		.loc 1 850 38
 293 000e 3B6B     		ldr	r3, [r7, #48]
 294 0010 186B     		ldr	r0, [r3, #48]
 295              		.loc 1 850 22
 296 0012 7B68     		ldr	r3, [r7, #4]
 297 0014 9B00     		lsls	r3, r3, #2
 298 0016 1A46     		mov	r2, r3
 299 0018 A521     		movs	r1, #165
 300 001a FFF7FEFF 		bl	memset
 851:./Drivers/FreeRTOS/tasks.c ****         }
 852:./Drivers/FreeRTOS/tasks.c ****     #endif /* tskSET_NEW_STACKS_TO_KNOWN_VALUE */
 853:./Drivers/FreeRTOS/tasks.c **** 
 854:./Drivers/FreeRTOS/tasks.c ****     /* Calculate the top of stack address.  This depends on whether the stack
 855:./Drivers/FreeRTOS/tasks.c ****      * grows from high memory to low (as per the 80x86) or vice versa.
 856:./Drivers/FreeRTOS/tasks.c ****      * portSTACK_GROWTH is used to make the result positive or negative as required
 857:./Drivers/FreeRTOS/tasks.c ****      * by the port. */
 858:./Drivers/FreeRTOS/tasks.c ****     #if ( portSTACK_GROWTH < 0 )
 859:./Drivers/FreeRTOS/tasks.c ****         {
 860:./Drivers/FreeRTOS/tasks.c ****             pxTopOfStack = &( pxNewTCB->pxStack[ ulStackDepth - ( uint32_t ) 1 ] );
 301              		.loc 1 860 39
 302 001e 3B6B     		ldr	r3, [r7, #48]
 303 0020 1A6B     		ldr	r2, [r3, #48]
ARM GAS  C:\Users\Benson\AppData\Local\Temp\ccSM8CXv.s 			page 21


 304              		.loc 1 860 48
 305 0022 7B68     		ldr	r3, [r7, #4]
 306 0024 03F18043 		add	r3, r3, #1073741824
 307 0028 013B     		subs	r3, r3, #1
 308 002a 9B00     		lsls	r3, r3, #2
 309              		.loc 1 860 26
 310 002c 1344     		add	r3, r3, r2
 311 002e BB61     		str	r3, [r7, #24]
 861:./Drivers/FreeRTOS/tasks.c ****             pxTopOfStack = ( StackType_t * ) ( ( ( portPOINTER_SIZE_TYPE ) pxTopOfStack ) & ( ~( ( 
 312              		.loc 1 861 50
 313 0030 BB69     		ldr	r3, [r7, #24]
 314              		.loc 1 861 91
 315 0032 23F00703 		bic	r3, r3, #7
 316              		.loc 1 861 26
 317 0036 BB61     		str	r3, [r7, #24]
 862:./Drivers/FreeRTOS/tasks.c **** 
 863:./Drivers/FreeRTOS/tasks.c ****             /* Check the alignment of the calculated top of stack is correct. */
 864:./Drivers/FreeRTOS/tasks.c ****             configASSERT( ( ( ( portPOINTER_SIZE_TYPE ) pxTopOfStack & ( portPOINTER_SIZE_TYPE ) po
 318              		.loc 1 864 13
 319 0038 BB69     		ldr	r3, [r7, #24]
 320 003a 03F00703 		and	r3, r3, #7
 321 003e 002B     		cmp	r3, #0
 322 0040 0AD0     		beq	.L9
 323              	.LBB156:
 324              	.LBB157:
 325              		.file 2 "Drivers/FreeRTOS/portable/GCC/ARM_CM4F/portmacro.h"
   1:Drivers/FreeRTOS/portable/GCC/ARM_CM4F/portmacro.h **** /*
   2:Drivers/FreeRTOS/portable/GCC/ARM_CM4F/portmacro.h ****  * FreeRTOS Kernel V10.4.6
   3:Drivers/FreeRTOS/portable/GCC/ARM_CM4F/portmacro.h ****  * Copyright (C) 2021 Amazon.com, Inc. or its affiliates.  All Rights Reserved.
   4:Drivers/FreeRTOS/portable/GCC/ARM_CM4F/portmacro.h ****  *
   5:Drivers/FreeRTOS/portable/GCC/ARM_CM4F/portmacro.h ****  * SPDX-License-Identifier: MIT
   6:Drivers/FreeRTOS/portable/GCC/ARM_CM4F/portmacro.h ****  *
   7:Drivers/FreeRTOS/portable/GCC/ARM_CM4F/portmacro.h ****  * Permission is hereby granted, free of charge, to any person obtaining a copy of
   8:Drivers/FreeRTOS/portable/GCC/ARM_CM4F/portmacro.h ****  * this software and associated documentation files (the "Software"), to deal in
   9:Drivers/FreeRTOS/portable/GCC/ARM_CM4F/portmacro.h ****  * the Software without restriction, including without limitation the rights to
  10:Drivers/FreeRTOS/portable/GCC/ARM_CM4F/portmacro.h ****  * use, copy, modify, merge, publish, distribute, sublicense, and/or sell copies of
  11:Drivers/FreeRTOS/portable/GCC/ARM_CM4F/portmacro.h ****  * the Software, and to permit persons to whom the Software is furnished to do so,
  12:Drivers/FreeRTOS/portable/GCC/ARM_CM4F/portmacro.h ****  * subject to the following conditions:
  13:Drivers/FreeRTOS/portable/GCC/ARM_CM4F/portmacro.h ****  *
  14:Drivers/FreeRTOS/portable/GCC/ARM_CM4F/portmacro.h ****  * The above copyright notice and this permission notice shall be included in all
  15:Drivers/FreeRTOS/portable/GCC/ARM_CM4F/portmacro.h ****  * copies or substantial portions of the Software.
  16:Drivers/FreeRTOS/portable/GCC/ARM_CM4F/portmacro.h ****  *
  17:Drivers/FreeRTOS/portable/GCC/ARM_CM4F/portmacro.h ****  * THE SOFTWARE IS PROVIDED "AS IS", WITHOUT WARRANTY OF ANY KIND, EXPRESS OR
  18:Drivers/FreeRTOS/portable/GCC/ARM_CM4F/portmacro.h ****  * IMPLIED, INCLUDING BUT NOT LIMITED TO THE WARRANTIES OF MERCHANTABILITY, FITNESS
  19:Drivers/FreeRTOS/portable/GCC/ARM_CM4F/portmacro.h ****  * FOR A PARTICULAR PURPOSE AND NONINFRINGEMENT. IN NO EVENT SHALL THE AUTHORS OR
  20:Drivers/FreeRTOS/portable/GCC/ARM_CM4F/portmacro.h ****  * COPYRIGHT HOLDERS BE LIABLE FOR ANY CLAIM, DAMAGES OR OTHER LIABILITY, WHETHER
  21:Drivers/FreeRTOS/portable/GCC/ARM_CM4F/portmacro.h ****  * IN AN ACTION OF CONTRACT, TORT OR OTHERWISE, ARISING FROM, OUT OF OR IN
  22:Drivers/FreeRTOS/portable/GCC/ARM_CM4F/portmacro.h ****  * CONNECTION WITH THE SOFTWARE OR THE USE OR OTHER DEALINGS IN THE SOFTWARE.
  23:Drivers/FreeRTOS/portable/GCC/ARM_CM4F/portmacro.h ****  *
  24:Drivers/FreeRTOS/portable/GCC/ARM_CM4F/portmacro.h ****  * https://www.FreeRTOS.org
  25:Drivers/FreeRTOS/portable/GCC/ARM_CM4F/portmacro.h ****  * https://github.com/FreeRTOS
  26:Drivers/FreeRTOS/portable/GCC/ARM_CM4F/portmacro.h ****  *
  27:Drivers/FreeRTOS/portable/GCC/ARM_CM4F/portmacro.h ****  */
  28:Drivers/FreeRTOS/portable/GCC/ARM_CM4F/portmacro.h **** 
  29:Drivers/FreeRTOS/portable/GCC/ARM_CM4F/portmacro.h **** 
  30:Drivers/FreeRTOS/portable/GCC/ARM_CM4F/portmacro.h **** #ifndef PORTMACRO_H
  31:Drivers/FreeRTOS/portable/GCC/ARM_CM4F/portmacro.h ****     #define PORTMACRO_H
ARM GAS  C:\Users\Benson\AppData\Local\Temp\ccSM8CXv.s 			page 22


  32:Drivers/FreeRTOS/portable/GCC/ARM_CM4F/portmacro.h **** 
  33:Drivers/FreeRTOS/portable/GCC/ARM_CM4F/portmacro.h ****     #ifdef __cplusplus
  34:Drivers/FreeRTOS/portable/GCC/ARM_CM4F/portmacro.h ****         extern "C" {
  35:Drivers/FreeRTOS/portable/GCC/ARM_CM4F/portmacro.h ****     #endif
  36:Drivers/FreeRTOS/portable/GCC/ARM_CM4F/portmacro.h **** 
  37:Drivers/FreeRTOS/portable/GCC/ARM_CM4F/portmacro.h **** /*-----------------------------------------------------------
  38:Drivers/FreeRTOS/portable/GCC/ARM_CM4F/portmacro.h ****  * Port specific definitions.
  39:Drivers/FreeRTOS/portable/GCC/ARM_CM4F/portmacro.h ****  *
  40:Drivers/FreeRTOS/portable/GCC/ARM_CM4F/portmacro.h ****  * The settings in this file configure FreeRTOS correctly for the
  41:Drivers/FreeRTOS/portable/GCC/ARM_CM4F/portmacro.h ****  * given hardware and compiler.
  42:Drivers/FreeRTOS/portable/GCC/ARM_CM4F/portmacro.h ****  *
  43:Drivers/FreeRTOS/portable/GCC/ARM_CM4F/portmacro.h ****  * These settings should not be altered.
  44:Drivers/FreeRTOS/portable/GCC/ARM_CM4F/portmacro.h ****  *-----------------------------------------------------------
  45:Drivers/FreeRTOS/portable/GCC/ARM_CM4F/portmacro.h ****  */
  46:Drivers/FreeRTOS/portable/GCC/ARM_CM4F/portmacro.h **** 
  47:Drivers/FreeRTOS/portable/GCC/ARM_CM4F/portmacro.h **** /* Type definitions. */
  48:Drivers/FreeRTOS/portable/GCC/ARM_CM4F/portmacro.h ****     #define portCHAR          char
  49:Drivers/FreeRTOS/portable/GCC/ARM_CM4F/portmacro.h ****     #define portFLOAT         float
  50:Drivers/FreeRTOS/portable/GCC/ARM_CM4F/portmacro.h ****     #define portDOUBLE        double
  51:Drivers/FreeRTOS/portable/GCC/ARM_CM4F/portmacro.h ****     #define portLONG          long
  52:Drivers/FreeRTOS/portable/GCC/ARM_CM4F/portmacro.h ****     #define portSHORT         short
  53:Drivers/FreeRTOS/portable/GCC/ARM_CM4F/portmacro.h ****     #define portSTACK_TYPE    uint32_t
  54:Drivers/FreeRTOS/portable/GCC/ARM_CM4F/portmacro.h ****     #define portBASE_TYPE     long
  55:Drivers/FreeRTOS/portable/GCC/ARM_CM4F/portmacro.h **** 
  56:Drivers/FreeRTOS/portable/GCC/ARM_CM4F/portmacro.h ****     typedef portSTACK_TYPE   StackType_t;
  57:Drivers/FreeRTOS/portable/GCC/ARM_CM4F/portmacro.h ****     typedef long             BaseType_t;
  58:Drivers/FreeRTOS/portable/GCC/ARM_CM4F/portmacro.h ****     typedef unsigned long    UBaseType_t;
  59:Drivers/FreeRTOS/portable/GCC/ARM_CM4F/portmacro.h **** 
  60:Drivers/FreeRTOS/portable/GCC/ARM_CM4F/portmacro.h ****     #if ( configUSE_16_BIT_TICKS == 1 )
  61:Drivers/FreeRTOS/portable/GCC/ARM_CM4F/portmacro.h ****         typedef uint16_t     TickType_t;
  62:Drivers/FreeRTOS/portable/GCC/ARM_CM4F/portmacro.h ****         #define portMAX_DELAY              ( TickType_t ) 0xffff
  63:Drivers/FreeRTOS/portable/GCC/ARM_CM4F/portmacro.h ****     #else
  64:Drivers/FreeRTOS/portable/GCC/ARM_CM4F/portmacro.h ****         typedef uint32_t     TickType_t;
  65:Drivers/FreeRTOS/portable/GCC/ARM_CM4F/portmacro.h ****         #define portMAX_DELAY              ( TickType_t ) 0xffffffffUL
  66:Drivers/FreeRTOS/portable/GCC/ARM_CM4F/portmacro.h **** 
  67:Drivers/FreeRTOS/portable/GCC/ARM_CM4F/portmacro.h **** /* 32-bit tick type on a 32-bit architecture, so reads of the tick count do
  68:Drivers/FreeRTOS/portable/GCC/ARM_CM4F/portmacro.h ****  * not need to be guarded with a critical section. */
  69:Drivers/FreeRTOS/portable/GCC/ARM_CM4F/portmacro.h ****         #define portTICK_TYPE_IS_ATOMIC    1
  70:Drivers/FreeRTOS/portable/GCC/ARM_CM4F/portmacro.h ****     #endif
  71:Drivers/FreeRTOS/portable/GCC/ARM_CM4F/portmacro.h **** /*-----------------------------------------------------------*/
  72:Drivers/FreeRTOS/portable/GCC/ARM_CM4F/portmacro.h **** 
  73:Drivers/FreeRTOS/portable/GCC/ARM_CM4F/portmacro.h **** /* Architecture specifics. */
  74:Drivers/FreeRTOS/portable/GCC/ARM_CM4F/portmacro.h ****     #define portSTACK_GROWTH      ( -1 )
  75:Drivers/FreeRTOS/portable/GCC/ARM_CM4F/portmacro.h ****     #define portTICK_PERIOD_MS    ( ( TickType_t ) 1000 / configTICK_RATE_HZ )
  76:Drivers/FreeRTOS/portable/GCC/ARM_CM4F/portmacro.h ****     #define portBYTE_ALIGNMENT    8
  77:Drivers/FreeRTOS/portable/GCC/ARM_CM4F/portmacro.h ****     #define portDONT_DISCARD      __attribute__( ( used ) )
  78:Drivers/FreeRTOS/portable/GCC/ARM_CM4F/portmacro.h **** /*-----------------------------------------------------------*/
  79:Drivers/FreeRTOS/portable/GCC/ARM_CM4F/portmacro.h **** 
  80:Drivers/FreeRTOS/portable/GCC/ARM_CM4F/portmacro.h **** /* Scheduler utilities. */
  81:Drivers/FreeRTOS/portable/GCC/ARM_CM4F/portmacro.h ****     #define portYIELD()                                 \
  82:Drivers/FreeRTOS/portable/GCC/ARM_CM4F/portmacro.h ****     {                                                   \
  83:Drivers/FreeRTOS/portable/GCC/ARM_CM4F/portmacro.h ****         /* Set a PendSV to request a context switch. */ \
  84:Drivers/FreeRTOS/portable/GCC/ARM_CM4F/portmacro.h ****         portNVIC_INT_CTRL_REG = portNVIC_PENDSVSET_BIT; \
  85:Drivers/FreeRTOS/portable/GCC/ARM_CM4F/portmacro.h ****                                                         \
  86:Drivers/FreeRTOS/portable/GCC/ARM_CM4F/portmacro.h ****         /* Barriers are normally not required but do ensure the code is completely \
  87:Drivers/FreeRTOS/portable/GCC/ARM_CM4F/portmacro.h ****          * within the specified behaviour for the architecture. */ \
  88:Drivers/FreeRTOS/portable/GCC/ARM_CM4F/portmacro.h ****         __asm volatile ( "dsb" ::: "memory" );                     \
ARM GAS  C:\Users\Benson\AppData\Local\Temp\ccSM8CXv.s 			page 23


  89:Drivers/FreeRTOS/portable/GCC/ARM_CM4F/portmacro.h ****         __asm volatile ( "isb" );                                  \
  90:Drivers/FreeRTOS/portable/GCC/ARM_CM4F/portmacro.h ****     }
  91:Drivers/FreeRTOS/portable/GCC/ARM_CM4F/portmacro.h **** 
  92:Drivers/FreeRTOS/portable/GCC/ARM_CM4F/portmacro.h ****     #define portNVIC_INT_CTRL_REG     ( *( ( volatile uint32_t * ) 0xe000ed04 ) )
  93:Drivers/FreeRTOS/portable/GCC/ARM_CM4F/portmacro.h ****     #define portNVIC_PENDSVSET_BIT    ( 1UL << 28UL )
  94:Drivers/FreeRTOS/portable/GCC/ARM_CM4F/portmacro.h ****     #define portEND_SWITCHING_ISR( xSwitchRequired )    do { if( xSwitchRequired != pdFALSE ) portY
  95:Drivers/FreeRTOS/portable/GCC/ARM_CM4F/portmacro.h ****     #define portYIELD_FROM_ISR( x )                     portEND_SWITCHING_ISR( x )
  96:Drivers/FreeRTOS/portable/GCC/ARM_CM4F/portmacro.h **** /*-----------------------------------------------------------*/
  97:Drivers/FreeRTOS/portable/GCC/ARM_CM4F/portmacro.h **** 
  98:Drivers/FreeRTOS/portable/GCC/ARM_CM4F/portmacro.h **** /* Critical section management. */
  99:Drivers/FreeRTOS/portable/GCC/ARM_CM4F/portmacro.h ****     extern void vPortEnterCritical( void );
 100:Drivers/FreeRTOS/portable/GCC/ARM_CM4F/portmacro.h ****     extern void vPortExitCritical( void );
 101:Drivers/FreeRTOS/portable/GCC/ARM_CM4F/portmacro.h ****     #define portSET_INTERRUPT_MASK_FROM_ISR()         ulPortRaiseBASEPRI()
 102:Drivers/FreeRTOS/portable/GCC/ARM_CM4F/portmacro.h ****     #define portCLEAR_INTERRUPT_MASK_FROM_ISR( x )    vPortSetBASEPRI( x )
 103:Drivers/FreeRTOS/portable/GCC/ARM_CM4F/portmacro.h ****     #define portDISABLE_INTERRUPTS()                  vPortRaiseBASEPRI()
 104:Drivers/FreeRTOS/portable/GCC/ARM_CM4F/portmacro.h ****     #define portENABLE_INTERRUPTS()                   vPortSetBASEPRI( 0 )
 105:Drivers/FreeRTOS/portable/GCC/ARM_CM4F/portmacro.h ****     #define portENTER_CRITICAL()                      vPortEnterCritical()
 106:Drivers/FreeRTOS/portable/GCC/ARM_CM4F/portmacro.h ****     #define portEXIT_CRITICAL()                       vPortExitCritical()
 107:Drivers/FreeRTOS/portable/GCC/ARM_CM4F/portmacro.h **** 
 108:Drivers/FreeRTOS/portable/GCC/ARM_CM4F/portmacro.h **** /*-----------------------------------------------------------*/
 109:Drivers/FreeRTOS/portable/GCC/ARM_CM4F/portmacro.h **** 
 110:Drivers/FreeRTOS/portable/GCC/ARM_CM4F/portmacro.h **** /* Task function macros as described on the FreeRTOS.org WEB site.  These are
 111:Drivers/FreeRTOS/portable/GCC/ARM_CM4F/portmacro.h ****  * not necessary for to use this port.  They are defined so the common demo files
 112:Drivers/FreeRTOS/portable/GCC/ARM_CM4F/portmacro.h ****  * (which build with all the ports) will build. */
 113:Drivers/FreeRTOS/portable/GCC/ARM_CM4F/portmacro.h ****     #define portTASK_FUNCTION_PROTO( vFunction, pvParameters )    void vFunction( void * pvParamete
 114:Drivers/FreeRTOS/portable/GCC/ARM_CM4F/portmacro.h ****     #define portTASK_FUNCTION( vFunction, pvParameters )          void vFunction( void * pvParamete
 115:Drivers/FreeRTOS/portable/GCC/ARM_CM4F/portmacro.h **** /*-----------------------------------------------------------*/
 116:Drivers/FreeRTOS/portable/GCC/ARM_CM4F/portmacro.h **** 
 117:Drivers/FreeRTOS/portable/GCC/ARM_CM4F/portmacro.h **** /* Tickless idle/low power functionality. */
 118:Drivers/FreeRTOS/portable/GCC/ARM_CM4F/portmacro.h ****     #ifndef portSUPPRESS_TICKS_AND_SLEEP
 119:Drivers/FreeRTOS/portable/GCC/ARM_CM4F/portmacro.h ****         extern void vPortSuppressTicksAndSleep( TickType_t xExpectedIdleTime );
 120:Drivers/FreeRTOS/portable/GCC/ARM_CM4F/portmacro.h ****         #define portSUPPRESS_TICKS_AND_SLEEP( xExpectedIdleTime )    vPortSuppressTicksAndSleep( xE
 121:Drivers/FreeRTOS/portable/GCC/ARM_CM4F/portmacro.h ****     #endif
 122:Drivers/FreeRTOS/portable/GCC/ARM_CM4F/portmacro.h **** /*-----------------------------------------------------------*/
 123:Drivers/FreeRTOS/portable/GCC/ARM_CM4F/portmacro.h **** 
 124:Drivers/FreeRTOS/portable/GCC/ARM_CM4F/portmacro.h **** /* Architecture specific optimisations. */
 125:Drivers/FreeRTOS/portable/GCC/ARM_CM4F/portmacro.h ****     #ifndef configUSE_PORT_OPTIMISED_TASK_SELECTION
 126:Drivers/FreeRTOS/portable/GCC/ARM_CM4F/portmacro.h ****         #define configUSE_PORT_OPTIMISED_TASK_SELECTION    1
 127:Drivers/FreeRTOS/portable/GCC/ARM_CM4F/portmacro.h ****     #endif
 128:Drivers/FreeRTOS/portable/GCC/ARM_CM4F/portmacro.h **** 
 129:Drivers/FreeRTOS/portable/GCC/ARM_CM4F/portmacro.h ****     #if configUSE_PORT_OPTIMISED_TASK_SELECTION == 1
 130:Drivers/FreeRTOS/portable/GCC/ARM_CM4F/portmacro.h **** 
 131:Drivers/FreeRTOS/portable/GCC/ARM_CM4F/portmacro.h **** /* Generic helper function. */
 132:Drivers/FreeRTOS/portable/GCC/ARM_CM4F/portmacro.h ****         __attribute__( ( always_inline ) ) static inline uint8_t ucPortCountLeadingZeros( uint32_t 
 133:Drivers/FreeRTOS/portable/GCC/ARM_CM4F/portmacro.h ****         {
 134:Drivers/FreeRTOS/portable/GCC/ARM_CM4F/portmacro.h ****             uint8_t ucReturn;
 135:Drivers/FreeRTOS/portable/GCC/ARM_CM4F/portmacro.h **** 
 136:Drivers/FreeRTOS/portable/GCC/ARM_CM4F/portmacro.h ****             __asm volatile ( "clz %0, %1" : "=r" ( ucReturn ) : "r" ( ulBitmap ) : "memory" );
 137:Drivers/FreeRTOS/portable/GCC/ARM_CM4F/portmacro.h **** 
 138:Drivers/FreeRTOS/portable/GCC/ARM_CM4F/portmacro.h ****             return ucReturn;
 139:Drivers/FreeRTOS/portable/GCC/ARM_CM4F/portmacro.h ****         }
 140:Drivers/FreeRTOS/portable/GCC/ARM_CM4F/portmacro.h **** 
 141:Drivers/FreeRTOS/portable/GCC/ARM_CM4F/portmacro.h **** /* Check the configuration. */
 142:Drivers/FreeRTOS/portable/GCC/ARM_CM4F/portmacro.h ****         #if ( configMAX_PRIORITIES > 32 )
 143:Drivers/FreeRTOS/portable/GCC/ARM_CM4F/portmacro.h ****             #error configUSE_PORT_OPTIMISED_TASK_SELECTION can only be set to 1 when configMAX_PRIO
 144:Drivers/FreeRTOS/portable/GCC/ARM_CM4F/portmacro.h ****         #endif
 145:Drivers/FreeRTOS/portable/GCC/ARM_CM4F/portmacro.h **** 
ARM GAS  C:\Users\Benson\AppData\Local\Temp\ccSM8CXv.s 			page 24


 146:Drivers/FreeRTOS/portable/GCC/ARM_CM4F/portmacro.h **** /* Store/clear the ready priorities in a bit map. */
 147:Drivers/FreeRTOS/portable/GCC/ARM_CM4F/portmacro.h ****         #define portRECORD_READY_PRIORITY( uxPriority, uxReadyPriorities )    ( uxReadyPriorities )
 148:Drivers/FreeRTOS/portable/GCC/ARM_CM4F/portmacro.h ****         #define portRESET_READY_PRIORITY( uxPriority, uxReadyPriorities )     ( uxReadyPriorities )
 149:Drivers/FreeRTOS/portable/GCC/ARM_CM4F/portmacro.h **** 
 150:Drivers/FreeRTOS/portable/GCC/ARM_CM4F/portmacro.h **** /*-----------------------------------------------------------*/
 151:Drivers/FreeRTOS/portable/GCC/ARM_CM4F/portmacro.h **** 
 152:Drivers/FreeRTOS/portable/GCC/ARM_CM4F/portmacro.h ****         #define portGET_HIGHEST_PRIORITY( uxTopPriority, uxReadyPriorities )    uxTopPriority = ( 3
 153:Drivers/FreeRTOS/portable/GCC/ARM_CM4F/portmacro.h **** 
 154:Drivers/FreeRTOS/portable/GCC/ARM_CM4F/portmacro.h ****     #endif /* configUSE_PORT_OPTIMISED_TASK_SELECTION */
 155:Drivers/FreeRTOS/portable/GCC/ARM_CM4F/portmacro.h **** 
 156:Drivers/FreeRTOS/portable/GCC/ARM_CM4F/portmacro.h **** /*-----------------------------------------------------------*/
 157:Drivers/FreeRTOS/portable/GCC/ARM_CM4F/portmacro.h **** 
 158:Drivers/FreeRTOS/portable/GCC/ARM_CM4F/portmacro.h ****     #ifdef configASSERT
 159:Drivers/FreeRTOS/portable/GCC/ARM_CM4F/portmacro.h ****         void vPortValidateInterruptPriority( void );
 160:Drivers/FreeRTOS/portable/GCC/ARM_CM4F/portmacro.h ****         #define portASSERT_IF_INTERRUPT_PRIORITY_INVALID()    vPortValidateInterruptPriority()
 161:Drivers/FreeRTOS/portable/GCC/ARM_CM4F/portmacro.h ****     #endif
 162:Drivers/FreeRTOS/portable/GCC/ARM_CM4F/portmacro.h **** 
 163:Drivers/FreeRTOS/portable/GCC/ARM_CM4F/portmacro.h **** /* portNOP() is not required by this port. */
 164:Drivers/FreeRTOS/portable/GCC/ARM_CM4F/portmacro.h ****     #define portNOP()
 165:Drivers/FreeRTOS/portable/GCC/ARM_CM4F/portmacro.h **** 
 166:Drivers/FreeRTOS/portable/GCC/ARM_CM4F/portmacro.h ****     #define portINLINE              __inline
 167:Drivers/FreeRTOS/portable/GCC/ARM_CM4F/portmacro.h **** 
 168:Drivers/FreeRTOS/portable/GCC/ARM_CM4F/portmacro.h ****     #ifndef portFORCE_INLINE
 169:Drivers/FreeRTOS/portable/GCC/ARM_CM4F/portmacro.h ****         #define portFORCE_INLINE    inline __attribute__( ( always_inline ) )
 170:Drivers/FreeRTOS/portable/GCC/ARM_CM4F/portmacro.h ****     #endif
 171:Drivers/FreeRTOS/portable/GCC/ARM_CM4F/portmacro.h **** 
 172:Drivers/FreeRTOS/portable/GCC/ARM_CM4F/portmacro.h ****     portFORCE_INLINE static BaseType_t xPortIsInsideInterrupt( void )
 173:Drivers/FreeRTOS/portable/GCC/ARM_CM4F/portmacro.h ****     {
 174:Drivers/FreeRTOS/portable/GCC/ARM_CM4F/portmacro.h ****         uint32_t ulCurrentInterrupt;
 175:Drivers/FreeRTOS/portable/GCC/ARM_CM4F/portmacro.h ****         BaseType_t xReturn;
 176:Drivers/FreeRTOS/portable/GCC/ARM_CM4F/portmacro.h **** 
 177:Drivers/FreeRTOS/portable/GCC/ARM_CM4F/portmacro.h ****         /* Obtain the number of the currently executing interrupt. */
 178:Drivers/FreeRTOS/portable/GCC/ARM_CM4F/portmacro.h ****         __asm volatile ( "mrs %0, ipsr" : "=r" ( ulCurrentInterrupt )::"memory" );
 179:Drivers/FreeRTOS/portable/GCC/ARM_CM4F/portmacro.h **** 
 180:Drivers/FreeRTOS/portable/GCC/ARM_CM4F/portmacro.h ****         if( ulCurrentInterrupt == 0 )
 181:Drivers/FreeRTOS/portable/GCC/ARM_CM4F/portmacro.h ****         {
 182:Drivers/FreeRTOS/portable/GCC/ARM_CM4F/portmacro.h ****             xReturn = pdFALSE;
 183:Drivers/FreeRTOS/portable/GCC/ARM_CM4F/portmacro.h ****         }
 184:Drivers/FreeRTOS/portable/GCC/ARM_CM4F/portmacro.h ****         else
 185:Drivers/FreeRTOS/portable/GCC/ARM_CM4F/portmacro.h ****         {
 186:Drivers/FreeRTOS/portable/GCC/ARM_CM4F/portmacro.h ****             xReturn = pdTRUE;
 187:Drivers/FreeRTOS/portable/GCC/ARM_CM4F/portmacro.h ****         }
 188:Drivers/FreeRTOS/portable/GCC/ARM_CM4F/portmacro.h **** 
 189:Drivers/FreeRTOS/portable/GCC/ARM_CM4F/portmacro.h ****         return xReturn;
 190:Drivers/FreeRTOS/portable/GCC/ARM_CM4F/portmacro.h ****     }
 191:Drivers/FreeRTOS/portable/GCC/ARM_CM4F/portmacro.h **** 
 192:Drivers/FreeRTOS/portable/GCC/ARM_CM4F/portmacro.h **** /*-----------------------------------------------------------*/
 193:Drivers/FreeRTOS/portable/GCC/ARM_CM4F/portmacro.h **** 
 194:Drivers/FreeRTOS/portable/GCC/ARM_CM4F/portmacro.h ****     portFORCE_INLINE static void vPortRaiseBASEPRI( void )
 195:Drivers/FreeRTOS/portable/GCC/ARM_CM4F/portmacro.h ****     {
 196:Drivers/FreeRTOS/portable/GCC/ARM_CM4F/portmacro.h ****         uint32_t ulNewBASEPRI;
 197:Drivers/FreeRTOS/portable/GCC/ARM_CM4F/portmacro.h **** 
 198:Drivers/FreeRTOS/portable/GCC/ARM_CM4F/portmacro.h ****         __asm volatile
 326              		.loc 2 198 9
 327              		.syntax unified
 328              	@ 198 "Drivers/FreeRTOS/portable/GCC/ARM_CM4F/portmacro.h" 1
 329 0042 4FF05003 			mov r3, #80												
ARM GAS  C:\Users\Benson\AppData\Local\Temp\ccSM8CXv.s 			page 25


 330 0046 83F31188 		msr basepri, r3											
 331 004a BFF36F8F 		isb														
 332 004e BFF34F8F 		dsb														
 333              	
 334              	@ 0 "" 2
 335              		.thumb
 336              		.syntax unified
 337 0052 7B61     		str	r3, [r7, #20]
 199:Drivers/FreeRTOS/portable/GCC/ARM_CM4F/portmacro.h ****         (
 200:Drivers/FreeRTOS/portable/GCC/ARM_CM4F/portmacro.h ****             "	mov %0, %1												\n"\
 201:Drivers/FreeRTOS/portable/GCC/ARM_CM4F/portmacro.h ****             "	msr basepri, %0											\n"\
 202:Drivers/FreeRTOS/portable/GCC/ARM_CM4F/portmacro.h ****             "	isb														\n"\
 203:Drivers/FreeRTOS/portable/GCC/ARM_CM4F/portmacro.h ****             "	dsb														\n"\
 204:Drivers/FreeRTOS/portable/GCC/ARM_CM4F/portmacro.h ****             : "=r" ( ulNewBASEPRI ) : "i" ( configMAX_SYSCALL_INTERRUPT_PRIORITY ) : "memory"
 205:Drivers/FreeRTOS/portable/GCC/ARM_CM4F/portmacro.h ****         );
 206:Drivers/FreeRTOS/portable/GCC/ARM_CM4F/portmacro.h ****     }
 338              		.loc 2 206 5
 339 0054 00BF     		nop
 340              	.L10:
 341              	.LBE157:
 342              	.LBE156:
 343              		.loc 1 864 13 discriminator 1
 344 0056 FEE7     		b	.L10
 345              	.L9:
 865:./Drivers/FreeRTOS/tasks.c **** 
 866:./Drivers/FreeRTOS/tasks.c ****             #if ( configRECORD_STACK_HIGH_ADDRESS == 1 )
 867:./Drivers/FreeRTOS/tasks.c ****                 {
 868:./Drivers/FreeRTOS/tasks.c ****                     /* Also record the stack's high address, which may assist
 869:./Drivers/FreeRTOS/tasks.c ****                      * debugging. */
 870:./Drivers/FreeRTOS/tasks.c ****                     pxNewTCB->pxEndOfStack = pxTopOfStack;
 871:./Drivers/FreeRTOS/tasks.c ****                 }
 872:./Drivers/FreeRTOS/tasks.c ****             #endif /* configRECORD_STACK_HIGH_ADDRESS */
 873:./Drivers/FreeRTOS/tasks.c ****         }
 874:./Drivers/FreeRTOS/tasks.c ****     #else /* portSTACK_GROWTH */
 875:./Drivers/FreeRTOS/tasks.c ****         {
 876:./Drivers/FreeRTOS/tasks.c ****             pxTopOfStack = pxNewTCB->pxStack;
 877:./Drivers/FreeRTOS/tasks.c **** 
 878:./Drivers/FreeRTOS/tasks.c ****             /* Check the alignment of the stack buffer is correct. */
 879:./Drivers/FreeRTOS/tasks.c ****             configASSERT( ( ( ( portPOINTER_SIZE_TYPE ) pxNewTCB->pxStack & ( portPOINTER_SIZE_TYPE
 880:./Drivers/FreeRTOS/tasks.c **** 
 881:./Drivers/FreeRTOS/tasks.c ****             /* The other extreme of the stack space is required if stack checking is
 882:./Drivers/FreeRTOS/tasks.c ****              * performed. */
 883:./Drivers/FreeRTOS/tasks.c ****             pxNewTCB->pxEndOfStack = pxNewTCB->pxStack + ( ulStackDepth - ( uint32_t ) 1 );
 884:./Drivers/FreeRTOS/tasks.c ****         }
 885:./Drivers/FreeRTOS/tasks.c ****     #endif /* portSTACK_GROWTH */
 886:./Drivers/FreeRTOS/tasks.c **** 
 887:./Drivers/FreeRTOS/tasks.c ****     /* Store the task name in the TCB. */
 888:./Drivers/FreeRTOS/tasks.c ****     if( pcName != NULL )
 346              		.loc 1 888 7
 347 0058 BB68     		ldr	r3, [r7, #8]
 348 005a 002B     		cmp	r3, #0
 349 005c 1FD0     		beq	.L11
 889:./Drivers/FreeRTOS/tasks.c ****     {
 890:./Drivers/FreeRTOS/tasks.c ****         for( x = ( UBaseType_t ) 0; x < ( UBaseType_t ) configMAX_TASK_NAME_LEN; x++ )
 350              		.loc 1 890 16
 351 005e 0023     		movs	r3, #0
 352 0060 FB61     		str	r3, [r7, #28]
ARM GAS  C:\Users\Benson\AppData\Local\Temp\ccSM8CXv.s 			page 26


 353              		.loc 1 890 9
 354 0062 12E0     		b	.L12
 355              	.L15:
 891:./Drivers/FreeRTOS/tasks.c ****         {
 892:./Drivers/FreeRTOS/tasks.c ****             pxNewTCB->pcTaskName[ x ] = pcName[ x ];
 356              		.loc 1 892 47
 357 0064 BA68     		ldr	r2, [r7, #8]
 358 0066 FB69     		ldr	r3, [r7, #28]
 359 0068 1344     		add	r3, r3, r2
 360 006a 1978     		ldrb	r1, [r3]	@ zero_extendqisi2
 361              		.loc 1 892 39
 362 006c 3A6B     		ldr	r2, [r7, #48]
 363 006e FB69     		ldr	r3, [r7, #28]
 364 0070 1344     		add	r3, r3, r2
 365 0072 3433     		adds	r3, r3, #52
 366 0074 0A46     		mov	r2, r1
 367 0076 1A70     		strb	r2, [r3]
 893:./Drivers/FreeRTOS/tasks.c **** 
 894:./Drivers/FreeRTOS/tasks.c ****             /* Don't copy all configMAX_TASK_NAME_LEN if the string is shorter than
 895:./Drivers/FreeRTOS/tasks.c ****              * configMAX_TASK_NAME_LEN characters just in case the memory after the
 896:./Drivers/FreeRTOS/tasks.c ****              * string is not accessible (extremely unlikely). */
 897:./Drivers/FreeRTOS/tasks.c ****             if( pcName[ x ] == ( char ) 0x00 )
 368              		.loc 1 897 23
 369 0078 BA68     		ldr	r2, [r7, #8]
 370 007a FB69     		ldr	r3, [r7, #28]
 371 007c 1344     		add	r3, r3, r2
 372 007e 1B78     		ldrb	r3, [r3]	@ zero_extendqisi2
 373              		.loc 1 897 15
 374 0080 002B     		cmp	r3, #0
 375 0082 06D0     		beq	.L21
 890:./Drivers/FreeRTOS/tasks.c ****         {
 376              		.loc 1 890 83 discriminator 2
 377 0084 FB69     		ldr	r3, [r7, #28]
 378 0086 0133     		adds	r3, r3, #1
 379 0088 FB61     		str	r3, [r7, #28]
 380              	.L12:
 890:./Drivers/FreeRTOS/tasks.c ****         {
 381              		.loc 1 890 9 discriminator 1
 382 008a FB69     		ldr	r3, [r7, #28]
 383 008c 092B     		cmp	r3, #9
 384 008e E9D9     		bls	.L15
 385 0090 00E0     		b	.L14
 386              	.L21:
 898:./Drivers/FreeRTOS/tasks.c ****             {
 899:./Drivers/FreeRTOS/tasks.c ****                 break;
 387              		.loc 1 899 17
 388 0092 00BF     		nop
 389              	.L14:
 900:./Drivers/FreeRTOS/tasks.c ****             }
 901:./Drivers/FreeRTOS/tasks.c ****             else
 902:./Drivers/FreeRTOS/tasks.c ****             {
 903:./Drivers/FreeRTOS/tasks.c ****                 mtCOVERAGE_TEST_MARKER();
 904:./Drivers/FreeRTOS/tasks.c ****             }
 905:./Drivers/FreeRTOS/tasks.c ****         }
 906:./Drivers/FreeRTOS/tasks.c **** 
 907:./Drivers/FreeRTOS/tasks.c ****         /* Ensure the name string is terminated in the case that the string length
 908:./Drivers/FreeRTOS/tasks.c ****          * was greater or equal to configMAX_TASK_NAME_LEN. */
ARM GAS  C:\Users\Benson\AppData\Local\Temp\ccSM8CXv.s 			page 27


 909:./Drivers/FreeRTOS/tasks.c ****         pxNewTCB->pcTaskName[ configMAX_TASK_NAME_LEN - 1 ] = '\0';
 390              		.loc 1 909 61
 391 0094 3B6B     		ldr	r3, [r7, #48]
 392 0096 0022     		movs	r2, #0
 393 0098 83F83D20 		strb	r2, [r3, #61]
 394 009c 03E0     		b	.L16
 395              	.L11:
 910:./Drivers/FreeRTOS/tasks.c ****     }
 911:./Drivers/FreeRTOS/tasks.c ****     else
 912:./Drivers/FreeRTOS/tasks.c ****     {
 913:./Drivers/FreeRTOS/tasks.c ****         /* The task has not been given a name, so just ensure there is a NULL
 914:./Drivers/FreeRTOS/tasks.c ****          * terminator when it is read out. */
 915:./Drivers/FreeRTOS/tasks.c ****         pxNewTCB->pcTaskName[ 0 ] = 0x00;
 396              		.loc 1 915 35
 397 009e 3B6B     		ldr	r3, [r7, #48]
 398 00a0 0022     		movs	r2, #0
 399 00a2 83F83420 		strb	r2, [r3, #52]
 400              	.L16:
 916:./Drivers/FreeRTOS/tasks.c ****     }
 917:./Drivers/FreeRTOS/tasks.c **** 
 918:./Drivers/FreeRTOS/tasks.c ****     /* This is used as an array index so must ensure it's not too large. */
 919:./Drivers/FreeRTOS/tasks.c ****     configASSERT( uxPriority < configMAX_PRIORITIES );
 401              		.loc 1 919 5
 402 00a6 BB6A     		ldr	r3, [r7, #40]
 403 00a8 042B     		cmp	r3, #4
 404 00aa 0AD9     		bls	.L17
 405              	.LBB158:
 406              	.LBB159:
 198:Drivers/FreeRTOS/portable/GCC/ARM_CM4F/portmacro.h ****         (
 407              		.loc 2 198 9
 408              		.syntax unified
 409              	@ 198 "Drivers/FreeRTOS/portable/GCC/ARM_CM4F/portmacro.h" 1
 410 00ac 4FF05003 			mov r3, #80												
 411 00b0 83F31188 		msr basepri, r3											
 412 00b4 BFF36F8F 		isb														
 413 00b8 BFF34F8F 		dsb														
 414              	
 415              	@ 0 "" 2
 416              		.thumb
 417              		.syntax unified
 418 00bc 3B61     		str	r3, [r7, #16]
 419              		.loc 2 206 5
 420 00be 00BF     		nop
 421              	.L18:
 422              	.LBE159:
 423              	.LBE158:
 424              		.loc 1 919 5 discriminator 2
 425 00c0 FEE7     		b	.L18
 426              	.L17:
 920:./Drivers/FreeRTOS/tasks.c **** 
 921:./Drivers/FreeRTOS/tasks.c ****     if( uxPriority >= ( UBaseType_t ) configMAX_PRIORITIES )
 427              		.loc 1 921 7
 428 00c2 BB6A     		ldr	r3, [r7, #40]
 429 00c4 042B     		cmp	r3, #4
 430 00c6 01D9     		bls	.L19
 922:./Drivers/FreeRTOS/tasks.c ****     {
 923:./Drivers/FreeRTOS/tasks.c ****         uxPriority = ( UBaseType_t ) configMAX_PRIORITIES - ( UBaseType_t ) 1U;
ARM GAS  C:\Users\Benson\AppData\Local\Temp\ccSM8CXv.s 			page 28


 431              		.loc 1 923 20
 432 00c8 0423     		movs	r3, #4
 433 00ca BB62     		str	r3, [r7, #40]
 434              	.L19:
 924:./Drivers/FreeRTOS/tasks.c ****     }
 925:./Drivers/FreeRTOS/tasks.c ****     else
 926:./Drivers/FreeRTOS/tasks.c ****     {
 927:./Drivers/FreeRTOS/tasks.c ****         mtCOVERAGE_TEST_MARKER();
 928:./Drivers/FreeRTOS/tasks.c ****     }
 929:./Drivers/FreeRTOS/tasks.c **** 
 930:./Drivers/FreeRTOS/tasks.c ****     pxNewTCB->uxPriority = uxPriority;
 435              		.loc 1 930 26
 436 00cc 3B6B     		ldr	r3, [r7, #48]
 437 00ce BA6A     		ldr	r2, [r7, #40]
 438 00d0 DA62     		str	r2, [r3, #44]
 931:./Drivers/FreeRTOS/tasks.c ****     #if ( configUSE_MUTEXES == 1 )
 932:./Drivers/FreeRTOS/tasks.c ****         {
 933:./Drivers/FreeRTOS/tasks.c ****             pxNewTCB->uxBasePriority = uxPriority;
 439              		.loc 1 933 38
 440 00d2 3B6B     		ldr	r3, [r7, #48]
 441 00d4 BA6A     		ldr	r2, [r7, #40]
 442 00d6 9A64     		str	r2, [r3, #72]
 934:./Drivers/FreeRTOS/tasks.c ****             pxNewTCB->uxMutexesHeld = 0;
 443              		.loc 1 934 37
 444 00d8 3B6B     		ldr	r3, [r7, #48]
 445 00da 0022     		movs	r2, #0
 446 00dc DA64     		str	r2, [r3, #76]
 935:./Drivers/FreeRTOS/tasks.c ****         }
 936:./Drivers/FreeRTOS/tasks.c ****     #endif /* configUSE_MUTEXES */
 937:./Drivers/FreeRTOS/tasks.c **** 
 938:./Drivers/FreeRTOS/tasks.c ****     vListInitialiseItem( &( pxNewTCB->xStateListItem ) );
 447              		.loc 1 938 5
 448 00de 3B6B     		ldr	r3, [r7, #48]
 449 00e0 0433     		adds	r3, r3, #4
 450 00e2 1846     		mov	r0, r3
 451 00e4 FFF7FEFF 		bl	vListInitialiseItem
 939:./Drivers/FreeRTOS/tasks.c ****     vListInitialiseItem( &( pxNewTCB->xEventListItem ) );
 452              		.loc 1 939 5
 453 00e8 3B6B     		ldr	r3, [r7, #48]
 454 00ea 1833     		adds	r3, r3, #24
 455 00ec 1846     		mov	r0, r3
 456 00ee FFF7FEFF 		bl	vListInitialiseItem
 940:./Drivers/FreeRTOS/tasks.c **** 
 941:./Drivers/FreeRTOS/tasks.c ****     /* Set the pxNewTCB as a link back from the ListItem_t.  This is so we can get
 942:./Drivers/FreeRTOS/tasks.c ****      * back to  the containing TCB from a generic item in a list. */
 943:./Drivers/FreeRTOS/tasks.c ****     listSET_LIST_ITEM_OWNER( &( pxNewTCB->xStateListItem ), pxNewTCB );
 457              		.loc 1 943 5
 458 00f2 3B6B     		ldr	r3, [r7, #48]
 459 00f4 3A6B     		ldr	r2, [r7, #48]
 460 00f6 1A61     		str	r2, [r3, #16]
 944:./Drivers/FreeRTOS/tasks.c **** 
 945:./Drivers/FreeRTOS/tasks.c ****     /* Event lists are always in priority order. */
 946:./Drivers/FreeRTOS/tasks.c ****     listSET_LIST_ITEM_VALUE( &( pxNewTCB->xEventListItem ), ( TickType_t ) configMAX_PRIORITIES - (
 461              		.loc 1 946 5
 462 00f8 BB6A     		ldr	r3, [r7, #40]
 463 00fa C3F10502 		rsb	r2, r3, #5
 464 00fe 3B6B     		ldr	r3, [r7, #48]
ARM GAS  C:\Users\Benson\AppData\Local\Temp\ccSM8CXv.s 			page 29


 465 0100 9A61     		str	r2, [r3, #24]
 947:./Drivers/FreeRTOS/tasks.c ****     listSET_LIST_ITEM_OWNER( &( pxNewTCB->xEventListItem ), pxNewTCB );
 466              		.loc 1 947 5
 467 0102 3B6B     		ldr	r3, [r7, #48]
 468 0104 3A6B     		ldr	r2, [r7, #48]
 469 0106 5A62     		str	r2, [r3, #36]
 948:./Drivers/FreeRTOS/tasks.c **** 
 949:./Drivers/FreeRTOS/tasks.c ****     #if ( portCRITICAL_NESTING_IN_TCB == 1 )
 950:./Drivers/FreeRTOS/tasks.c ****         {
 951:./Drivers/FreeRTOS/tasks.c ****             pxNewTCB->uxCriticalNesting = ( UBaseType_t ) 0U;
 952:./Drivers/FreeRTOS/tasks.c ****         }
 953:./Drivers/FreeRTOS/tasks.c ****     #endif /* portCRITICAL_NESTING_IN_TCB */
 954:./Drivers/FreeRTOS/tasks.c **** 
 955:./Drivers/FreeRTOS/tasks.c ****     #if ( configUSE_APPLICATION_TASK_TAG == 1 )
 956:./Drivers/FreeRTOS/tasks.c ****         {
 957:./Drivers/FreeRTOS/tasks.c ****             pxNewTCB->pxTaskTag = NULL;
 958:./Drivers/FreeRTOS/tasks.c ****         }
 959:./Drivers/FreeRTOS/tasks.c ****     #endif /* configUSE_APPLICATION_TASK_TAG */
 960:./Drivers/FreeRTOS/tasks.c **** 
 961:./Drivers/FreeRTOS/tasks.c ****     #if ( configGENERATE_RUN_TIME_STATS == 1 )
 962:./Drivers/FreeRTOS/tasks.c ****         {
 963:./Drivers/FreeRTOS/tasks.c ****             pxNewTCB->ulRunTimeCounter = ( configRUN_TIME_COUNTER_TYPE ) 0;
 964:./Drivers/FreeRTOS/tasks.c ****         }
 965:./Drivers/FreeRTOS/tasks.c ****     #endif /* configGENERATE_RUN_TIME_STATS */
 966:./Drivers/FreeRTOS/tasks.c **** 
 967:./Drivers/FreeRTOS/tasks.c ****     #if ( portUSING_MPU_WRAPPERS == 1 )
 968:./Drivers/FreeRTOS/tasks.c ****         {
 969:./Drivers/FreeRTOS/tasks.c ****             vPortStoreTaskMPUSettings( &( pxNewTCB->xMPUSettings ), xRegions, pxNewTCB->pxStack, ul
 970:./Drivers/FreeRTOS/tasks.c ****         }
 971:./Drivers/FreeRTOS/tasks.c ****     #else
 972:./Drivers/FreeRTOS/tasks.c ****         {
 973:./Drivers/FreeRTOS/tasks.c ****             /* Avoid compiler warning about unreferenced parameter. */
 974:./Drivers/FreeRTOS/tasks.c ****             ( void ) xRegions;
 975:./Drivers/FreeRTOS/tasks.c ****         }
 976:./Drivers/FreeRTOS/tasks.c ****     #endif
 977:./Drivers/FreeRTOS/tasks.c **** 
 978:./Drivers/FreeRTOS/tasks.c ****     #if ( configNUM_THREAD_LOCAL_STORAGE_POINTERS != 0 )
 979:./Drivers/FreeRTOS/tasks.c ****         {
 980:./Drivers/FreeRTOS/tasks.c ****             memset( ( void * ) &( pxNewTCB->pvThreadLocalStoragePointers[ 0 ] ), 0x00, sizeof( pxNe
 981:./Drivers/FreeRTOS/tasks.c ****         }
 982:./Drivers/FreeRTOS/tasks.c ****     #endif
 983:./Drivers/FreeRTOS/tasks.c **** 
 984:./Drivers/FreeRTOS/tasks.c ****     #if ( configUSE_TASK_NOTIFICATIONS == 1 )
 985:./Drivers/FreeRTOS/tasks.c ****         {
 986:./Drivers/FreeRTOS/tasks.c ****             memset( ( void * ) &( pxNewTCB->ulNotifiedValue[ 0 ] ), 0x00, sizeof( pxNewTCB->ulNotif
 470              		.loc 1 986 32
 471 0108 3B6B     		ldr	r3, [r7, #48]
 472 010a 5033     		adds	r3, r3, #80
 473              		.loc 1 986 13
 474 010c 0422     		movs	r2, #4
 475 010e 0021     		movs	r1, #0
 476 0110 1846     		mov	r0, r3
 477 0112 FFF7FEFF 		bl	memset
 987:./Drivers/FreeRTOS/tasks.c ****             memset( ( void * ) &( pxNewTCB->ucNotifyState[ 0 ] ), 0x00, sizeof( pxNewTCB->ucNotifyS
 478              		.loc 1 987 32
 479 0116 3B6B     		ldr	r3, [r7, #48]
 480 0118 5433     		adds	r3, r3, #84
ARM GAS  C:\Users\Benson\AppData\Local\Temp\ccSM8CXv.s 			page 30


 481              		.loc 1 987 13
 482 011a 0122     		movs	r2, #1
 483 011c 0021     		movs	r1, #0
 484 011e 1846     		mov	r0, r3
 485 0120 FFF7FEFF 		bl	memset
 988:./Drivers/FreeRTOS/tasks.c ****         }
 989:./Drivers/FreeRTOS/tasks.c ****     #endif
 990:./Drivers/FreeRTOS/tasks.c **** 
 991:./Drivers/FreeRTOS/tasks.c ****     #if ( configUSE_NEWLIB_REENTRANT == 1 )
 992:./Drivers/FreeRTOS/tasks.c ****         {
 993:./Drivers/FreeRTOS/tasks.c ****             /* Initialise this task's Newlib reent structure.
 994:./Drivers/FreeRTOS/tasks.c ****              * See the third party link http://www.nadler.com/embedded/newlibAndFreeRTOS.html
 995:./Drivers/FreeRTOS/tasks.c ****              * for additional information. */
 996:./Drivers/FreeRTOS/tasks.c ****             _REENT_INIT_PTR( ( &( pxNewTCB->xNewLib_reent ) ) );
 997:./Drivers/FreeRTOS/tasks.c ****         }
 998:./Drivers/FreeRTOS/tasks.c ****     #endif
 999:./Drivers/FreeRTOS/tasks.c **** 
1000:./Drivers/FreeRTOS/tasks.c ****     #if ( INCLUDE_xTaskAbortDelay == 1 )
1001:./Drivers/FreeRTOS/tasks.c ****         {
1002:./Drivers/FreeRTOS/tasks.c ****             pxNewTCB->ucDelayAborted = pdFALSE;
1003:./Drivers/FreeRTOS/tasks.c ****         }
1004:./Drivers/FreeRTOS/tasks.c ****     #endif
1005:./Drivers/FreeRTOS/tasks.c **** 
1006:./Drivers/FreeRTOS/tasks.c ****     /* Initialize the TCB stack to look as if the task was already running,
1007:./Drivers/FreeRTOS/tasks.c ****      * but had been interrupted by the scheduler.  The return address is set
1008:./Drivers/FreeRTOS/tasks.c ****      * to the start of the task function. Once the stack has been initialised
1009:./Drivers/FreeRTOS/tasks.c ****      * the top of stack variable is updated. */
1010:./Drivers/FreeRTOS/tasks.c ****     #if ( portUSING_MPU_WRAPPERS == 1 )
1011:./Drivers/FreeRTOS/tasks.c ****         {
1012:./Drivers/FreeRTOS/tasks.c ****             /* If the port has capability to detect stack overflow,
1013:./Drivers/FreeRTOS/tasks.c ****              * pass the stack end address to the stack initialization
1014:./Drivers/FreeRTOS/tasks.c ****              * function as well. */
1015:./Drivers/FreeRTOS/tasks.c ****             #if ( portHAS_STACK_OVERFLOW_CHECKING == 1 )
1016:./Drivers/FreeRTOS/tasks.c ****                 {
1017:./Drivers/FreeRTOS/tasks.c ****                     #if ( portSTACK_GROWTH < 0 )
1018:./Drivers/FreeRTOS/tasks.c ****                         {
1019:./Drivers/FreeRTOS/tasks.c ****                             pxNewTCB->pxTopOfStack = pxPortInitialiseStack( pxTopOfStack, pxNewTCB-
1020:./Drivers/FreeRTOS/tasks.c ****                         }
1021:./Drivers/FreeRTOS/tasks.c ****                     #else /* portSTACK_GROWTH */
1022:./Drivers/FreeRTOS/tasks.c ****                         {
1023:./Drivers/FreeRTOS/tasks.c ****                             pxNewTCB->pxTopOfStack = pxPortInitialiseStack( pxTopOfStack, pxNewTCB-
1024:./Drivers/FreeRTOS/tasks.c ****                         }
1025:./Drivers/FreeRTOS/tasks.c ****                     #endif /* portSTACK_GROWTH */
1026:./Drivers/FreeRTOS/tasks.c ****                 }
1027:./Drivers/FreeRTOS/tasks.c ****             #else /* portHAS_STACK_OVERFLOW_CHECKING */
1028:./Drivers/FreeRTOS/tasks.c ****                 {
1029:./Drivers/FreeRTOS/tasks.c ****                     pxNewTCB->pxTopOfStack = pxPortInitialiseStack( pxTopOfStack, pxTaskCode, pvPar
1030:./Drivers/FreeRTOS/tasks.c ****                 }
1031:./Drivers/FreeRTOS/tasks.c ****             #endif /* portHAS_STACK_OVERFLOW_CHECKING */
1032:./Drivers/FreeRTOS/tasks.c ****         }
1033:./Drivers/FreeRTOS/tasks.c ****     #else /* portUSING_MPU_WRAPPERS */
1034:./Drivers/FreeRTOS/tasks.c ****         {
1035:./Drivers/FreeRTOS/tasks.c ****             /* If the port has capability to detect stack overflow,
1036:./Drivers/FreeRTOS/tasks.c ****              * pass the stack end address to the stack initialization
1037:./Drivers/FreeRTOS/tasks.c ****              * function as well. */
1038:./Drivers/FreeRTOS/tasks.c ****             #if ( portHAS_STACK_OVERFLOW_CHECKING == 1 )
1039:./Drivers/FreeRTOS/tasks.c ****                 {
ARM GAS  C:\Users\Benson\AppData\Local\Temp\ccSM8CXv.s 			page 31


1040:./Drivers/FreeRTOS/tasks.c ****                     #if ( portSTACK_GROWTH < 0 )
1041:./Drivers/FreeRTOS/tasks.c ****                         {
1042:./Drivers/FreeRTOS/tasks.c ****                             pxNewTCB->pxTopOfStack = pxPortInitialiseStack( pxTopOfStack, pxNewTCB-
1043:./Drivers/FreeRTOS/tasks.c ****                         }
1044:./Drivers/FreeRTOS/tasks.c ****                     #else /* portSTACK_GROWTH */
1045:./Drivers/FreeRTOS/tasks.c ****                         {
1046:./Drivers/FreeRTOS/tasks.c ****                             pxNewTCB->pxTopOfStack = pxPortInitialiseStack( pxTopOfStack, pxNewTCB-
1047:./Drivers/FreeRTOS/tasks.c ****                         }
1048:./Drivers/FreeRTOS/tasks.c ****                     #endif /* portSTACK_GROWTH */
1049:./Drivers/FreeRTOS/tasks.c ****                 }
1050:./Drivers/FreeRTOS/tasks.c ****             #else /* portHAS_STACK_OVERFLOW_CHECKING */
1051:./Drivers/FreeRTOS/tasks.c ****                 {
1052:./Drivers/FreeRTOS/tasks.c ****                     pxNewTCB->pxTopOfStack = pxPortInitialiseStack( pxTopOfStack, pxTaskCode, pvPar
 486              		.loc 1 1052 46
 487 0124 3A68     		ldr	r2, [r7]
 488 0126 F968     		ldr	r1, [r7, #12]
 489 0128 B869     		ldr	r0, [r7, #24]
 490 012a FFF7FEFF 		bl	pxPortInitialiseStack
 491 012e 0246     		mov	r2, r0
 492              		.loc 1 1052 44
 493 0130 3B6B     		ldr	r3, [r7, #48]
 494 0132 1A60     		str	r2, [r3]
1053:./Drivers/FreeRTOS/tasks.c ****                 }
1054:./Drivers/FreeRTOS/tasks.c ****             #endif /* portHAS_STACK_OVERFLOW_CHECKING */
1055:./Drivers/FreeRTOS/tasks.c ****         }
1056:./Drivers/FreeRTOS/tasks.c ****     #endif /* portUSING_MPU_WRAPPERS */
1057:./Drivers/FreeRTOS/tasks.c **** 
1058:./Drivers/FreeRTOS/tasks.c ****     if( pxCreatedTask != NULL )
 495              		.loc 1 1058 7
 496 0134 FB6A     		ldr	r3, [r7, #44]
 497 0136 002B     		cmp	r3, #0
 498 0138 02D0     		beq	.L22
1059:./Drivers/FreeRTOS/tasks.c ****     {
1060:./Drivers/FreeRTOS/tasks.c ****         /* Pass the handle out in an anonymous way.  The handle can be used to
1061:./Drivers/FreeRTOS/tasks.c ****          * change the created task's priority, delete the created task, etc.*/
1062:./Drivers/FreeRTOS/tasks.c ****         *pxCreatedTask = ( TaskHandle_t ) pxNewTCB;
 499              		.loc 1 1062 24
 500 013a FB6A     		ldr	r3, [r7, #44]
 501 013c 3A6B     		ldr	r2, [r7, #48]
 502 013e 1A60     		str	r2, [r3]
 503              	.L22:
1063:./Drivers/FreeRTOS/tasks.c ****     }
1064:./Drivers/FreeRTOS/tasks.c ****     else
1065:./Drivers/FreeRTOS/tasks.c ****     {
1066:./Drivers/FreeRTOS/tasks.c ****         mtCOVERAGE_TEST_MARKER();
1067:./Drivers/FreeRTOS/tasks.c ****     }
1068:./Drivers/FreeRTOS/tasks.c **** }
 504              		.loc 1 1068 1
 505 0140 00BF     		nop
 506 0142 2037     		adds	r7, r7, #32
 507              	.LCFI8:
 508              		.cfi_def_cfa_offset 8
 509 0144 BD46     		mov	sp, r7
 510              	.LCFI9:
 511              		.cfi_def_cfa_register 13
 512              		@ sp needed
 513 0146 80BD     		pop	{r7, pc}
ARM GAS  C:\Users\Benson\AppData\Local\Temp\ccSM8CXv.s 			page 32


 514              		.cfi_endproc
 515              	.LFE6:
 517              		.section	.text.prvAddNewTaskToReadyList,"ax",%progbits
 518              		.align	1
 519              		.syntax unified
 520              		.thumb
 521              		.thumb_func
 522              		.fpu fpv4-sp-d16
 524              	prvAddNewTaskToReadyList:
 525              	.LFB7:
1069:./Drivers/FreeRTOS/tasks.c **** /*-----------------------------------------------------------*/
1070:./Drivers/FreeRTOS/tasks.c **** 
1071:./Drivers/FreeRTOS/tasks.c **** static void prvAddNewTaskToReadyList( TCB_t * pxNewTCB )
1072:./Drivers/FreeRTOS/tasks.c **** {
 526              		.loc 1 1072 1
 527              		.cfi_startproc
 528              		@ args = 0, pretend = 0, frame = 16
 529              		@ frame_needed = 1, uses_anonymous_args = 0
 530 0000 80B5     		push	{r7, lr}
 531              	.LCFI10:
 532              		.cfi_def_cfa_offset 8
 533              		.cfi_offset 7, -8
 534              		.cfi_offset 14, -4
 535 0002 84B0     		sub	sp, sp, #16
 536              	.LCFI11:
 537              		.cfi_def_cfa_offset 24
 538 0004 00AF     		add	r7, sp, #0
 539              	.LCFI12:
 540              		.cfi_def_cfa_register 7
 541 0006 7860     		str	r0, [r7, #4]
1073:./Drivers/FreeRTOS/tasks.c ****     /* Ensure interrupts don't access the task lists while the lists are being
1074:./Drivers/FreeRTOS/tasks.c ****      * updated. */
1075:./Drivers/FreeRTOS/tasks.c ****     taskENTER_CRITICAL();
 542              		.loc 1 1075 5
 543 0008 FFF7FEFF 		bl	vPortEnterCritical
1076:./Drivers/FreeRTOS/tasks.c ****     {
1077:./Drivers/FreeRTOS/tasks.c ****         uxCurrentNumberOfTasks++;
 544              		.loc 1 1077 31
 545 000c 404B     		ldr	r3, .L28
 546 000e 1B68     		ldr	r3, [r3]
 547 0010 0133     		adds	r3, r3, #1
 548 0012 3F4A     		ldr	r2, .L28
 549 0014 1360     		str	r3, [r2]
1078:./Drivers/FreeRTOS/tasks.c **** 
1079:./Drivers/FreeRTOS/tasks.c ****         if( pxCurrentTCB == NULL )
 550              		.loc 1 1079 26
 551 0016 3F4B     		ldr	r3, .L28+4
 552 0018 1B68     		ldr	r3, [r3]
 553              		.loc 1 1079 11
 554 001a 002B     		cmp	r3, #0
 555 001c 09D1     		bne	.L24
1080:./Drivers/FreeRTOS/tasks.c ****         {
1081:./Drivers/FreeRTOS/tasks.c ****             /* There are no other tasks, or all the other tasks are in
1082:./Drivers/FreeRTOS/tasks.c ****              * the suspended state - make this the current task. */
1083:./Drivers/FreeRTOS/tasks.c ****             pxCurrentTCB = pxNewTCB;
 556              		.loc 1 1083 26
 557 001e 3D4A     		ldr	r2, .L28+4
ARM GAS  C:\Users\Benson\AppData\Local\Temp\ccSM8CXv.s 			page 33


 558 0020 7B68     		ldr	r3, [r7, #4]
 559 0022 1360     		str	r3, [r2]
1084:./Drivers/FreeRTOS/tasks.c **** 
1085:./Drivers/FreeRTOS/tasks.c ****             if( uxCurrentNumberOfTasks == ( UBaseType_t ) 1 )
 560              		.loc 1 1085 40
 561 0024 3A4B     		ldr	r3, .L28
 562 0026 1B68     		ldr	r3, [r3]
 563              		.loc 1 1085 15
 564 0028 012B     		cmp	r3, #1
 565 002a 10D1     		bne	.L25
1086:./Drivers/FreeRTOS/tasks.c ****             {
1087:./Drivers/FreeRTOS/tasks.c ****                 /* This is the first task to be created so do the preliminary
1088:./Drivers/FreeRTOS/tasks.c ****                  * initialisation required.  We will not recover if this call
1089:./Drivers/FreeRTOS/tasks.c ****                  * fails, but we will report the failure. */
1090:./Drivers/FreeRTOS/tasks.c ****                 prvInitialiseTaskLists();
 566              		.loc 1 1090 17
 567 002c FFF7FEFF 		bl	prvInitialiseTaskLists
 568 0030 0DE0     		b	.L25
 569              	.L24:
1091:./Drivers/FreeRTOS/tasks.c ****             }
1092:./Drivers/FreeRTOS/tasks.c ****             else
1093:./Drivers/FreeRTOS/tasks.c ****             {
1094:./Drivers/FreeRTOS/tasks.c ****                 mtCOVERAGE_TEST_MARKER();
1095:./Drivers/FreeRTOS/tasks.c ****             }
1096:./Drivers/FreeRTOS/tasks.c ****         }
1097:./Drivers/FreeRTOS/tasks.c ****         else
1098:./Drivers/FreeRTOS/tasks.c ****         {
1099:./Drivers/FreeRTOS/tasks.c ****             /* If the scheduler is not already running, make this task the
1100:./Drivers/FreeRTOS/tasks.c ****              * current task if it is the highest priority task to be created
1101:./Drivers/FreeRTOS/tasks.c ****              * so far. */
1102:./Drivers/FreeRTOS/tasks.c ****             if( xSchedulerRunning == pdFALSE )
 570              		.loc 1 1102 35
 571 0032 394B     		ldr	r3, .L28+8
 572 0034 1B68     		ldr	r3, [r3]
 573              		.loc 1 1102 15
 574 0036 002B     		cmp	r3, #0
 575 0038 09D1     		bne	.L25
1103:./Drivers/FreeRTOS/tasks.c ****             {
1104:./Drivers/FreeRTOS/tasks.c ****                 if( pxCurrentTCB->uxPriority <= pxNewTCB->uxPriority )
 576              		.loc 1 1104 33
 577 003a 364B     		ldr	r3, .L28+4
 578 003c 1B68     		ldr	r3, [r3]
 579 003e DA6A     		ldr	r2, [r3, #44]
 580              		.loc 1 1104 57
 581 0040 7B68     		ldr	r3, [r7, #4]
 582 0042 DB6A     		ldr	r3, [r3, #44]
 583              		.loc 1 1104 19
 584 0044 9A42     		cmp	r2, r3
 585 0046 02D8     		bhi	.L25
1105:./Drivers/FreeRTOS/tasks.c ****                 {
1106:./Drivers/FreeRTOS/tasks.c ****                     pxCurrentTCB = pxNewTCB;
 586              		.loc 1 1106 34
 587 0048 324A     		ldr	r2, .L28+4
 588 004a 7B68     		ldr	r3, [r7, #4]
 589 004c 1360     		str	r3, [r2]
 590              	.L25:
1107:./Drivers/FreeRTOS/tasks.c ****                 }
ARM GAS  C:\Users\Benson\AppData\Local\Temp\ccSM8CXv.s 			page 34


1108:./Drivers/FreeRTOS/tasks.c ****                 else
1109:./Drivers/FreeRTOS/tasks.c ****                 {
1110:./Drivers/FreeRTOS/tasks.c ****                     mtCOVERAGE_TEST_MARKER();
1111:./Drivers/FreeRTOS/tasks.c ****                 }
1112:./Drivers/FreeRTOS/tasks.c ****             }
1113:./Drivers/FreeRTOS/tasks.c ****             else
1114:./Drivers/FreeRTOS/tasks.c ****             {
1115:./Drivers/FreeRTOS/tasks.c ****                 mtCOVERAGE_TEST_MARKER();
1116:./Drivers/FreeRTOS/tasks.c ****             }
1117:./Drivers/FreeRTOS/tasks.c ****         }
1118:./Drivers/FreeRTOS/tasks.c **** 
1119:./Drivers/FreeRTOS/tasks.c ****         uxTaskNumber++;
 591              		.loc 1 1119 21
 592 004e 334B     		ldr	r3, .L28+12
 593 0050 1B68     		ldr	r3, [r3]
 594 0052 0133     		adds	r3, r3, #1
 595 0054 314A     		ldr	r2, .L28+12
 596 0056 1360     		str	r3, [r2]
1120:./Drivers/FreeRTOS/tasks.c **** 
1121:./Drivers/FreeRTOS/tasks.c ****         #if ( configUSE_TRACE_FACILITY == 1 )
1122:./Drivers/FreeRTOS/tasks.c ****             {
1123:./Drivers/FreeRTOS/tasks.c ****                 /* Add a counter into the TCB for tracing only. */
1124:./Drivers/FreeRTOS/tasks.c ****                 pxNewTCB->uxTCBNumber = uxTaskNumber;
 597              		.loc 1 1124 39
 598 0058 304B     		ldr	r3, .L28+12
 599 005a 1A68     		ldr	r2, [r3]
 600 005c 7B68     		ldr	r3, [r7, #4]
 601 005e 1A64     		str	r2, [r3, #64]
1125:./Drivers/FreeRTOS/tasks.c ****             }
1126:./Drivers/FreeRTOS/tasks.c ****         #endif /* configUSE_TRACE_FACILITY */
1127:./Drivers/FreeRTOS/tasks.c ****         traceTASK_CREATE( pxNewTCB );
1128:./Drivers/FreeRTOS/tasks.c **** 
1129:./Drivers/FreeRTOS/tasks.c ****         prvAddTaskToReadyList( pxNewTCB );
 602              		.loc 1 1129 9
 603 0060 7B68     		ldr	r3, [r7, #4]
 604 0062 DB6A     		ldr	r3, [r3, #44]
 605 0064 0122     		movs	r2, #1
 606 0066 9A40     		lsls	r2, r2, r3
 607 0068 2D4B     		ldr	r3, .L28+16
 608 006a 1B68     		ldr	r3, [r3]
 609 006c 1343     		orrs	r3, r3, r2
 610 006e 2C4A     		ldr	r2, .L28+16
 611 0070 1360     		str	r3, [r2]
 612              	.LBB160:
 613 0072 7B68     		ldr	r3, [r7, #4]
 614 0074 DA6A     		ldr	r2, [r3, #44]
 615 0076 2B49     		ldr	r1, .L28+20
 616 0078 1346     		mov	r3, r2
 617 007a 9B00     		lsls	r3, r3, #2
 618 007c 1344     		add	r3, r3, r2
 619 007e 9B00     		lsls	r3, r3, #2
 620 0080 0B44     		add	r3, r3, r1
 621 0082 0433     		adds	r3, r3, #4
 622 0084 1B68     		ldr	r3, [r3]
 623 0086 FB60     		str	r3, [r7, #12]
 624 0088 7B68     		ldr	r3, [r7, #4]
 625 008a FA68     		ldr	r2, [r7, #12]
ARM GAS  C:\Users\Benson\AppData\Local\Temp\ccSM8CXv.s 			page 35


 626 008c 9A60     		str	r2, [r3, #8]
 627 008e FB68     		ldr	r3, [r7, #12]
 628 0090 9A68     		ldr	r2, [r3, #8]
 629 0092 7B68     		ldr	r3, [r7, #4]
 630 0094 DA60     		str	r2, [r3, #12]
 631 0096 FB68     		ldr	r3, [r7, #12]
 632 0098 9B68     		ldr	r3, [r3, #8]
 633 009a 7A68     		ldr	r2, [r7, #4]
 634 009c 0432     		adds	r2, r2, #4
 635 009e 5A60     		str	r2, [r3, #4]
 636 00a0 7B68     		ldr	r3, [r7, #4]
 637 00a2 1A1D     		adds	r2, r3, #4
 638 00a4 FB68     		ldr	r3, [r7, #12]
 639 00a6 9A60     		str	r2, [r3, #8]
 640 00a8 7B68     		ldr	r3, [r7, #4]
 641 00aa DA6A     		ldr	r2, [r3, #44]
 642 00ac 1346     		mov	r3, r2
 643 00ae 9B00     		lsls	r3, r3, #2
 644 00b0 1344     		add	r3, r3, r2
 645 00b2 9B00     		lsls	r3, r3, #2
 646 00b4 1B4A     		ldr	r2, .L28+20
 647 00b6 1A44     		add	r2, r2, r3
 648 00b8 7B68     		ldr	r3, [r7, #4]
 649 00ba 5A61     		str	r2, [r3, #20]
 650 00bc 7B68     		ldr	r3, [r7, #4]
 651 00be DA6A     		ldr	r2, [r3, #44]
 652 00c0 1849     		ldr	r1, .L28+20
 653 00c2 1346     		mov	r3, r2
 654 00c4 9B00     		lsls	r3, r3, #2
 655 00c6 1344     		add	r3, r3, r2
 656 00c8 9B00     		lsls	r3, r3, #2
 657 00ca 0B44     		add	r3, r3, r1
 658 00cc 1B68     		ldr	r3, [r3]
 659 00ce 591C     		adds	r1, r3, #1
 660 00d0 1448     		ldr	r0, .L28+20
 661 00d2 1346     		mov	r3, r2
 662 00d4 9B00     		lsls	r3, r3, #2
 663 00d6 1344     		add	r3, r3, r2
 664 00d8 9B00     		lsls	r3, r3, #2
 665 00da 0344     		add	r3, r3, r0
 666 00dc 1960     		str	r1, [r3]
 667              	.LBE160:
1130:./Drivers/FreeRTOS/tasks.c **** 
1131:./Drivers/FreeRTOS/tasks.c ****         portSETUP_TCB( pxNewTCB );
1132:./Drivers/FreeRTOS/tasks.c ****     }
1133:./Drivers/FreeRTOS/tasks.c ****     taskEXIT_CRITICAL();
 668              		.loc 1 1133 5
 669 00de FFF7FEFF 		bl	vPortExitCritical
1134:./Drivers/FreeRTOS/tasks.c **** 
1135:./Drivers/FreeRTOS/tasks.c ****     if( xSchedulerRunning != pdFALSE )
 670              		.loc 1 1135 27
 671 00e2 0D4B     		ldr	r3, .L28+8
 672 00e4 1B68     		ldr	r3, [r3]
 673              		.loc 1 1135 7
 674 00e6 002B     		cmp	r3, #0
 675 00e8 0ED0     		beq	.L27
1136:./Drivers/FreeRTOS/tasks.c ****     {
ARM GAS  C:\Users\Benson\AppData\Local\Temp\ccSM8CXv.s 			page 36


1137:./Drivers/FreeRTOS/tasks.c ****         /* If the created task is of a higher priority than the current task
1138:./Drivers/FreeRTOS/tasks.c ****          * then it should run now. */
1139:./Drivers/FreeRTOS/tasks.c ****         if( pxCurrentTCB->uxPriority < pxNewTCB->uxPriority )
 676              		.loc 1 1139 25
 677 00ea 0A4B     		ldr	r3, .L28+4
 678 00ec 1B68     		ldr	r3, [r3]
 679 00ee DA6A     		ldr	r2, [r3, #44]
 680              		.loc 1 1139 48
 681 00f0 7B68     		ldr	r3, [r7, #4]
 682 00f2 DB6A     		ldr	r3, [r3, #44]
 683              		.loc 1 1139 11
 684 00f4 9A42     		cmp	r2, r3
 685 00f6 07D2     		bcs	.L27
1140:./Drivers/FreeRTOS/tasks.c ****         {
1141:./Drivers/FreeRTOS/tasks.c ****             taskYIELD_IF_USING_PREEMPTION();
 686              		.loc 1 1141 13
 687 00f8 0B4B     		ldr	r3, .L28+24
 688 00fa 4FF08052 		mov	r2, #268435456
 689 00fe 1A60     		str	r2, [r3]
 690              		.syntax unified
 691              	@ 1141 "./Drivers/FreeRTOS/tasks.c" 1
 692 0100 BFF34F8F 		dsb
 693              	@ 0 "" 2
 694              	@ 1141 "./Drivers/FreeRTOS/tasks.c" 1
 695 0104 BFF36F8F 		isb
 696              	@ 0 "" 2
 697              		.thumb
 698              		.syntax unified
 699              	.L27:
1142:./Drivers/FreeRTOS/tasks.c ****         }
1143:./Drivers/FreeRTOS/tasks.c ****         else
1144:./Drivers/FreeRTOS/tasks.c ****         {
1145:./Drivers/FreeRTOS/tasks.c ****             mtCOVERAGE_TEST_MARKER();
1146:./Drivers/FreeRTOS/tasks.c ****         }
1147:./Drivers/FreeRTOS/tasks.c ****     }
1148:./Drivers/FreeRTOS/tasks.c ****     else
1149:./Drivers/FreeRTOS/tasks.c ****     {
1150:./Drivers/FreeRTOS/tasks.c ****         mtCOVERAGE_TEST_MARKER();
1151:./Drivers/FreeRTOS/tasks.c ****     }
1152:./Drivers/FreeRTOS/tasks.c **** }
 700              		.loc 1 1152 1
 701 0108 00BF     		nop
 702 010a 1037     		adds	r7, r7, #16
 703              	.LCFI13:
 704              		.cfi_def_cfa_offset 8
 705 010c BD46     		mov	sp, r7
 706              	.LCFI14:
 707              		.cfi_def_cfa_register 13
 708              		@ sp needed
 709 010e 80BD     		pop	{r7, pc}
 710              	.L29:
 711              		.align	2
 712              	.L28:
 713 0110 00000000 		.word	uxCurrentNumberOfTasks
 714 0114 00000000 		.word	pxCurrentTCB
 715 0118 00000000 		.word	xSchedulerRunning
 716 011c 00000000 		.word	uxTaskNumber
ARM GAS  C:\Users\Benson\AppData\Local\Temp\ccSM8CXv.s 			page 37


 717 0120 00000000 		.word	uxTopReadyPriority
 718 0124 00000000 		.word	pxReadyTasksLists
 719 0128 04ED00E0 		.word	-536810236
 720              		.cfi_endproc
 721              	.LFE7:
 723              		.section	.text.vTaskDelete,"ax",%progbits
 724              		.align	1
 725              		.global	vTaskDelete
 726              		.syntax unified
 727              		.thumb
 728              		.thumb_func
 729              		.fpu fpv4-sp-d16
 731              	vTaskDelete:
 732              	.LFB8:
1153:./Drivers/FreeRTOS/tasks.c **** /*-----------------------------------------------------------*/
1154:./Drivers/FreeRTOS/tasks.c **** 
1155:./Drivers/FreeRTOS/tasks.c **** #if ( INCLUDE_vTaskDelete == 1 )
1156:./Drivers/FreeRTOS/tasks.c **** 
1157:./Drivers/FreeRTOS/tasks.c ****     void vTaskDelete( TaskHandle_t xTaskToDelete )
1158:./Drivers/FreeRTOS/tasks.c ****     {
 733              		.loc 1 1158 5
 734              		.cfi_startproc
 735              		@ args = 0, pretend = 0, frame = 16
 736              		@ frame_needed = 1, uses_anonymous_args = 0
 737 0000 80B5     		push	{r7, lr}
 738              	.LCFI15:
 739              		.cfi_def_cfa_offset 8
 740              		.cfi_offset 7, -8
 741              		.cfi_offset 14, -4
 742 0002 84B0     		sub	sp, sp, #16
 743              	.LCFI16:
 744              		.cfi_def_cfa_offset 24
 745 0004 00AF     		add	r7, sp, #0
 746              	.LCFI17:
 747              		.cfi_def_cfa_register 7
 748 0006 7860     		str	r0, [r7, #4]
1159:./Drivers/FreeRTOS/tasks.c ****         TCB_t * pxTCB;
1160:./Drivers/FreeRTOS/tasks.c **** 
1161:./Drivers/FreeRTOS/tasks.c ****         taskENTER_CRITICAL();
 749              		.loc 1 1161 9
 750 0008 FFF7FEFF 		bl	vPortEnterCritical
1162:./Drivers/FreeRTOS/tasks.c ****         {
1163:./Drivers/FreeRTOS/tasks.c ****             /* If null is passed in here then it is the calling task that is
1164:./Drivers/FreeRTOS/tasks.c ****              * being deleted. */
1165:./Drivers/FreeRTOS/tasks.c ****             pxTCB = prvGetTCBFromHandle( xTaskToDelete );
 751              		.loc 1 1165 21
 752 000c 7B68     		ldr	r3, [r7, #4]
 753 000e 002B     		cmp	r3, #0
 754 0010 02D1     		bne	.L31
 755              		.loc 1 1165 21 is_stmt 0 discriminator 1
 756 0012 3B4B     		ldr	r3, .L42
 757 0014 1B68     		ldr	r3, [r3]
 758 0016 00E0     		b	.L32
 759              	.L31:
 760              		.loc 1 1165 21 discriminator 2
 761 0018 7B68     		ldr	r3, [r7, #4]
 762              	.L32:
ARM GAS  C:\Users\Benson\AppData\Local\Temp\ccSM8CXv.s 			page 38


 763              		.loc 1 1165 19 is_stmt 1 discriminator 4
 764 001a FB60     		str	r3, [r7, #12]
1166:./Drivers/FreeRTOS/tasks.c **** 
1167:./Drivers/FreeRTOS/tasks.c ****             /* Remove task from the ready/delayed list. */
1168:./Drivers/FreeRTOS/tasks.c ****             if( uxListRemove( &( pxTCB->xStateListItem ) ) == ( UBaseType_t ) 0 )
 765              		.loc 1 1168 17 discriminator 4
 766 001c FB68     		ldr	r3, [r7, #12]
 767 001e 0433     		adds	r3, r3, #4
 768 0020 1846     		mov	r0, r3
 769 0022 FFF7FEFF 		bl	uxListRemove
 770 0026 0346     		mov	r3, r0
 771              		.loc 1 1168 15 discriminator 4
 772 0028 002B     		cmp	r3, #0
 773 002a 15D1     		bne	.L33
1169:./Drivers/FreeRTOS/tasks.c ****             {
1170:./Drivers/FreeRTOS/tasks.c ****                 taskRESET_READY_PRIORITY( pxTCB->uxPriority );
 774              		.loc 1 1170 17
 775 002c FB68     		ldr	r3, [r7, #12]
 776 002e DA6A     		ldr	r2, [r3, #44]
 777 0030 3449     		ldr	r1, .L42+4
 778 0032 1346     		mov	r3, r2
 779 0034 9B00     		lsls	r3, r3, #2
 780 0036 1344     		add	r3, r3, r2
 781 0038 9B00     		lsls	r3, r3, #2
 782 003a 0B44     		add	r3, r3, r1
 783 003c 1B68     		ldr	r3, [r3]
 784 003e 002B     		cmp	r3, #0
 785 0040 0AD1     		bne	.L33
 786              		.loc 1 1170 17 is_stmt 0 discriminator 1
 787 0042 FB68     		ldr	r3, [r7, #12]
 788 0044 DB6A     		ldr	r3, [r3, #44]
 789 0046 0122     		movs	r2, #1
 790 0048 02FA03F3 		lsl	r3, r2, r3
 791 004c DA43     		mvns	r2, r3
 792 004e 2E4B     		ldr	r3, .L42+8
 793 0050 1B68     		ldr	r3, [r3]
 794 0052 1340     		ands	r3, r3, r2
 795 0054 2C4A     		ldr	r2, .L42+8
 796 0056 1360     		str	r3, [r2]
 797              	.L33:
1171:./Drivers/FreeRTOS/tasks.c ****             }
1172:./Drivers/FreeRTOS/tasks.c ****             else
1173:./Drivers/FreeRTOS/tasks.c ****             {
1174:./Drivers/FreeRTOS/tasks.c ****                 mtCOVERAGE_TEST_MARKER();
1175:./Drivers/FreeRTOS/tasks.c ****             }
1176:./Drivers/FreeRTOS/tasks.c **** 
1177:./Drivers/FreeRTOS/tasks.c ****             /* Is the task waiting on an event also? */
1178:./Drivers/FreeRTOS/tasks.c ****             if( listLIST_ITEM_CONTAINER( &( pxTCB->xEventListItem ) ) != NULL )
 798              		.loc 1 1178 17 is_stmt 1
 799 0058 FB68     		ldr	r3, [r7, #12]
 800 005a 9B6A     		ldr	r3, [r3, #40]
 801              		.loc 1 1178 15
 802 005c 002B     		cmp	r3, #0
 803 005e 04D0     		beq	.L34
1179:./Drivers/FreeRTOS/tasks.c ****             {
1180:./Drivers/FreeRTOS/tasks.c ****                 ( void ) uxListRemove( &( pxTCB->xEventListItem ) );
 804              		.loc 1 1180 26
ARM GAS  C:\Users\Benson\AppData\Local\Temp\ccSM8CXv.s 			page 39


 805 0060 FB68     		ldr	r3, [r7, #12]
 806 0062 1833     		adds	r3, r3, #24
 807 0064 1846     		mov	r0, r3
 808 0066 FFF7FEFF 		bl	uxListRemove
 809              	.L34:
1181:./Drivers/FreeRTOS/tasks.c ****             }
1182:./Drivers/FreeRTOS/tasks.c ****             else
1183:./Drivers/FreeRTOS/tasks.c ****             {
1184:./Drivers/FreeRTOS/tasks.c ****                 mtCOVERAGE_TEST_MARKER();
1185:./Drivers/FreeRTOS/tasks.c ****             }
1186:./Drivers/FreeRTOS/tasks.c **** 
1187:./Drivers/FreeRTOS/tasks.c ****             /* Increment the uxTaskNumber also so kernel aware debuggers can
1188:./Drivers/FreeRTOS/tasks.c ****              * detect that the task lists need re-generating.  This is done before
1189:./Drivers/FreeRTOS/tasks.c ****              * portPRE_TASK_DELETE_HOOK() as in the Windows port that macro will
1190:./Drivers/FreeRTOS/tasks.c ****              * not return. */
1191:./Drivers/FreeRTOS/tasks.c ****             uxTaskNumber++;
 810              		.loc 1 1191 25
 811 006a 284B     		ldr	r3, .L42+12
 812 006c 1B68     		ldr	r3, [r3]
 813 006e 0133     		adds	r3, r3, #1
 814 0070 264A     		ldr	r2, .L42+12
 815 0072 1360     		str	r3, [r2]
1192:./Drivers/FreeRTOS/tasks.c **** 
1193:./Drivers/FreeRTOS/tasks.c ****             if( pxTCB == pxCurrentTCB )
 816              		.loc 1 1193 23
 817 0074 224B     		ldr	r3, .L42
 818 0076 1B68     		ldr	r3, [r3]
 819              		.loc 1 1193 15
 820 0078 FA68     		ldr	r2, [r7, #12]
 821 007a 9A42     		cmp	r2, r3
 822 007c 0BD1     		bne	.L35
1194:./Drivers/FreeRTOS/tasks.c ****             {
1195:./Drivers/FreeRTOS/tasks.c ****                 /* A task is deleting itself.  This cannot complete within the
1196:./Drivers/FreeRTOS/tasks.c ****                  * task itself, as a context switch to another task is required.
1197:./Drivers/FreeRTOS/tasks.c ****                  * Place the task in the termination list.  The idle task will
1198:./Drivers/FreeRTOS/tasks.c ****                  * check the termination list and free up any memory allocated by
1199:./Drivers/FreeRTOS/tasks.c ****                  * the scheduler for the TCB and stack of the deleted task. */
1200:./Drivers/FreeRTOS/tasks.c ****                 vListInsertEnd( &xTasksWaitingTermination, &( pxTCB->xStateListItem ) );
 823              		.loc 1 1200 17
 824 007e FB68     		ldr	r3, [r7, #12]
 825 0080 0433     		adds	r3, r3, #4
 826 0082 1946     		mov	r1, r3
 827 0084 2248     		ldr	r0, .L42+16
 828 0086 FFF7FEFF 		bl	vListInsertEnd
1201:./Drivers/FreeRTOS/tasks.c **** 
1202:./Drivers/FreeRTOS/tasks.c ****                 /* Increment the ucTasksDeleted variable so the idle task knows
1203:./Drivers/FreeRTOS/tasks.c ****                  * there is a task that has been deleted and that it should therefore
1204:./Drivers/FreeRTOS/tasks.c ****                  * check the xTasksWaitingTermination list. */
1205:./Drivers/FreeRTOS/tasks.c ****                 ++uxDeletedTasksWaitingCleanUp;
 829              		.loc 1 1205 17
 830 008a 224B     		ldr	r3, .L42+20
 831 008c 1B68     		ldr	r3, [r3]
 832 008e 0133     		adds	r3, r3, #1
 833 0090 204A     		ldr	r2, .L42+20
 834 0092 1360     		str	r3, [r2]
 835 0094 06E0     		b	.L36
 836              	.L35:
ARM GAS  C:\Users\Benson\AppData\Local\Temp\ccSM8CXv.s 			page 40


1206:./Drivers/FreeRTOS/tasks.c **** 
1207:./Drivers/FreeRTOS/tasks.c ****                 /* Call the delete hook before portPRE_TASK_DELETE_HOOK() as
1208:./Drivers/FreeRTOS/tasks.c ****                  * portPRE_TASK_DELETE_HOOK() does not return in the Win32 port. */
1209:./Drivers/FreeRTOS/tasks.c ****                 traceTASK_DELETE( pxTCB );
1210:./Drivers/FreeRTOS/tasks.c **** 
1211:./Drivers/FreeRTOS/tasks.c ****                 /* The pre-delete hook is primarily for the Windows simulator,
1212:./Drivers/FreeRTOS/tasks.c ****                  * in which Windows specific clean up operations are performed,
1213:./Drivers/FreeRTOS/tasks.c ****                  * after which it is not possible to yield away from this task -
1214:./Drivers/FreeRTOS/tasks.c ****                  * hence xYieldPending is used to latch that a context switch is
1215:./Drivers/FreeRTOS/tasks.c ****                  * required. */
1216:./Drivers/FreeRTOS/tasks.c ****                 portPRE_TASK_DELETE_HOOK( pxTCB, &xYieldPending );
1217:./Drivers/FreeRTOS/tasks.c ****             }
1218:./Drivers/FreeRTOS/tasks.c ****             else
1219:./Drivers/FreeRTOS/tasks.c ****             {
1220:./Drivers/FreeRTOS/tasks.c ****                 --uxCurrentNumberOfTasks;
 837              		.loc 1 1220 17
 838 0096 204B     		ldr	r3, .L42+24
 839 0098 1B68     		ldr	r3, [r3]
 840 009a 013B     		subs	r3, r3, #1
 841 009c 1E4A     		ldr	r2, .L42+24
 842 009e 1360     		str	r3, [r2]
1221:./Drivers/FreeRTOS/tasks.c ****                 traceTASK_DELETE( pxTCB );
1222:./Drivers/FreeRTOS/tasks.c **** 
1223:./Drivers/FreeRTOS/tasks.c ****                 /* Reset the next expected unblock time in case it referred to
1224:./Drivers/FreeRTOS/tasks.c ****                  * the task that has just been deleted. */
1225:./Drivers/FreeRTOS/tasks.c ****                 prvResetNextTaskUnblockTime();
 843              		.loc 1 1225 17
 844 00a0 FFF7FEFF 		bl	prvResetNextTaskUnblockTime
 845              	.L36:
1226:./Drivers/FreeRTOS/tasks.c ****             }
1227:./Drivers/FreeRTOS/tasks.c ****         }
1228:./Drivers/FreeRTOS/tasks.c ****         taskEXIT_CRITICAL();
 846              		.loc 1 1228 9
 847 00a4 FFF7FEFF 		bl	vPortExitCritical
1229:./Drivers/FreeRTOS/tasks.c **** 
1230:./Drivers/FreeRTOS/tasks.c ****         /* If the task is not deleting itself, call prvDeleteTCB from outside of
1231:./Drivers/FreeRTOS/tasks.c ****          * critical section. If a task deletes itself, prvDeleteTCB is called
1232:./Drivers/FreeRTOS/tasks.c ****          * from prvCheckTasksWaitingTermination which is called from Idle task. */
1233:./Drivers/FreeRTOS/tasks.c ****         if( pxTCB != pxCurrentTCB )
 848              		.loc 1 1233 19
 849 00a8 154B     		ldr	r3, .L42
 850 00aa 1B68     		ldr	r3, [r3]
 851              		.loc 1 1233 11
 852 00ac FA68     		ldr	r2, [r7, #12]
 853 00ae 9A42     		cmp	r2, r3
 854 00b0 02D0     		beq	.L37
1234:./Drivers/FreeRTOS/tasks.c ****         {
1235:./Drivers/FreeRTOS/tasks.c ****             prvDeleteTCB( pxTCB );
 855              		.loc 1 1235 13
 856 00b2 F868     		ldr	r0, [r7, #12]
 857 00b4 FFF7FEFF 		bl	prvDeleteTCB
 858              	.L37:
1236:./Drivers/FreeRTOS/tasks.c ****         }
1237:./Drivers/FreeRTOS/tasks.c **** 
1238:./Drivers/FreeRTOS/tasks.c ****         /* Force a reschedule if it is the currently running task that has just
1239:./Drivers/FreeRTOS/tasks.c ****          * been deleted. */
1240:./Drivers/FreeRTOS/tasks.c ****         if( xSchedulerRunning != pdFALSE )
ARM GAS  C:\Users\Benson\AppData\Local\Temp\ccSM8CXv.s 			page 41


 859              		.loc 1 1240 31
 860 00b8 184B     		ldr	r3, .L42+28
 861 00ba 1B68     		ldr	r3, [r3]
 862              		.loc 1 1240 11
 863 00bc 002B     		cmp	r3, #0
 864 00be 1BD0     		beq	.L41
1241:./Drivers/FreeRTOS/tasks.c ****         {
1242:./Drivers/FreeRTOS/tasks.c ****             if( pxTCB == pxCurrentTCB )
 865              		.loc 1 1242 23
 866 00c0 0F4B     		ldr	r3, .L42
 867 00c2 1B68     		ldr	r3, [r3]
 868              		.loc 1 1242 15
 869 00c4 FA68     		ldr	r2, [r7, #12]
 870 00c6 9A42     		cmp	r2, r3
 871 00c8 16D1     		bne	.L41
1243:./Drivers/FreeRTOS/tasks.c ****             {
1244:./Drivers/FreeRTOS/tasks.c ****                 configASSERT( uxSchedulerSuspended == 0 );
 872              		.loc 1 1244 17
 873 00ca 154B     		ldr	r3, .L42+32
 874 00cc 1B68     		ldr	r3, [r3]
 875 00ce 002B     		cmp	r3, #0
 876 00d0 0AD0     		beq	.L39
 877              	.LBB161:
 878              	.LBB162:
 198:Drivers/FreeRTOS/portable/GCC/ARM_CM4F/portmacro.h ****         (
 879              		.loc 2 198 9
 880              		.syntax unified
 881              	@ 198 "Drivers/FreeRTOS/portable/GCC/ARM_CM4F/portmacro.h" 1
 882 00d2 4FF05003 			mov r3, #80												
 883 00d6 83F31188 		msr basepri, r3											
 884 00da BFF36F8F 		isb														
 885 00de BFF34F8F 		dsb														
 886              	
 887              	@ 0 "" 2
 888              		.thumb
 889              		.syntax unified
 890 00e2 BB60     		str	r3, [r7, #8]
 891              		.loc 2 206 5
 892 00e4 00BF     		nop
 893              	.L40:
 894              	.LBE162:
 895              	.LBE161:
 896              		.loc 1 1244 17 discriminator 1
 897 00e6 FEE7     		b	.L40
 898              	.L39:
1245:./Drivers/FreeRTOS/tasks.c ****                 portYIELD_WITHIN_API();
 899              		.loc 1 1245 17
 900 00e8 0E4B     		ldr	r3, .L42+36
 901 00ea 4FF08052 		mov	r2, #268435456
 902 00ee 1A60     		str	r2, [r3]
 903              		.syntax unified
 904              	@ 1245 "./Drivers/FreeRTOS/tasks.c" 1
 905 00f0 BFF34F8F 		dsb
 906              	@ 0 "" 2
 907              	@ 1245 "./Drivers/FreeRTOS/tasks.c" 1
 908 00f4 BFF36F8F 		isb
 909              	@ 0 "" 2
ARM GAS  C:\Users\Benson\AppData\Local\Temp\ccSM8CXv.s 			page 42


 910              		.thumb
 911              		.syntax unified
 912              	.L41:
1246:./Drivers/FreeRTOS/tasks.c ****             }
1247:./Drivers/FreeRTOS/tasks.c ****             else
1248:./Drivers/FreeRTOS/tasks.c ****             {
1249:./Drivers/FreeRTOS/tasks.c ****                 mtCOVERAGE_TEST_MARKER();
1250:./Drivers/FreeRTOS/tasks.c ****             }
1251:./Drivers/FreeRTOS/tasks.c ****         }
1252:./Drivers/FreeRTOS/tasks.c ****     }
 913              		.loc 1 1252 5
 914 00f8 00BF     		nop
 915 00fa 1037     		adds	r7, r7, #16
 916              	.LCFI18:
 917              		.cfi_def_cfa_offset 8
 918 00fc BD46     		mov	sp, r7
 919              	.LCFI19:
 920              		.cfi_def_cfa_register 13
 921              		@ sp needed
 922 00fe 80BD     		pop	{r7, pc}
 923              	.L43:
 924              		.align	2
 925              	.L42:
 926 0100 00000000 		.word	pxCurrentTCB
 927 0104 00000000 		.word	pxReadyTasksLists
 928 0108 00000000 		.word	uxTopReadyPriority
 929 010c 00000000 		.word	uxTaskNumber
 930 0110 00000000 		.word	xTasksWaitingTermination
 931 0114 00000000 		.word	uxDeletedTasksWaitingCleanUp
 932 0118 00000000 		.word	uxCurrentNumberOfTasks
 933 011c 00000000 		.word	xSchedulerRunning
 934 0120 00000000 		.word	uxSchedulerSuspended
 935 0124 04ED00E0 		.word	-536810236
 936              		.cfi_endproc
 937              	.LFE8:
 939              		.section	.text.xTaskDelayUntil,"ax",%progbits
 940              		.align	1
 941              		.global	xTaskDelayUntil
 942              		.syntax unified
 943              		.thumb
 944              		.thumb_func
 945              		.fpu fpv4-sp-d16
 947              	xTaskDelayUntil:
 948              	.LFB9:
1253:./Drivers/FreeRTOS/tasks.c **** 
1254:./Drivers/FreeRTOS/tasks.c **** #endif /* INCLUDE_vTaskDelete */
1255:./Drivers/FreeRTOS/tasks.c **** /*-----------------------------------------------------------*/
1256:./Drivers/FreeRTOS/tasks.c **** 
1257:./Drivers/FreeRTOS/tasks.c **** #if ( INCLUDE_xTaskDelayUntil == 1 )
1258:./Drivers/FreeRTOS/tasks.c **** 
1259:./Drivers/FreeRTOS/tasks.c ****     BaseType_t xTaskDelayUntil( TickType_t * const pxPreviousWakeTime,
1260:./Drivers/FreeRTOS/tasks.c ****                                 const TickType_t xTimeIncrement )
1261:./Drivers/FreeRTOS/tasks.c ****     {
 949              		.loc 1 1261 5
 950              		.cfi_startproc
 951              		@ args = 0, pretend = 0, frame = 40
 952              		@ frame_needed = 1, uses_anonymous_args = 0
ARM GAS  C:\Users\Benson\AppData\Local\Temp\ccSM8CXv.s 			page 43


 953 0000 80B5     		push	{r7, lr}
 954              	.LCFI20:
 955              		.cfi_def_cfa_offset 8
 956              		.cfi_offset 7, -8
 957              		.cfi_offset 14, -4
 958 0002 8AB0     		sub	sp, sp, #40
 959              	.LCFI21:
 960              		.cfi_def_cfa_offset 48
 961 0004 00AF     		add	r7, sp, #0
 962              	.LCFI22:
 963              		.cfi_def_cfa_register 7
 964 0006 7860     		str	r0, [r7, #4]
 965 0008 3960     		str	r1, [r7]
1262:./Drivers/FreeRTOS/tasks.c ****         TickType_t xTimeToWake;
1263:./Drivers/FreeRTOS/tasks.c ****         BaseType_t xAlreadyYielded, xShouldDelay = pdFALSE;
 966              		.loc 1 1263 37
 967 000a 0023     		movs	r3, #0
 968 000c 7B62     		str	r3, [r7, #36]
1264:./Drivers/FreeRTOS/tasks.c **** 
1265:./Drivers/FreeRTOS/tasks.c ****         configASSERT( pxPreviousWakeTime );
 969              		.loc 1 1265 9
 970 000e 7B68     		ldr	r3, [r7, #4]
 971 0010 002B     		cmp	r3, #0
 972 0012 0AD1     		bne	.L45
 973              	.LBB163:
 974              	.LBB164:
 198:Drivers/FreeRTOS/portable/GCC/ARM_CM4F/portmacro.h ****         (
 975              		.loc 2 198 9
 976              		.syntax unified
 977              	@ 198 "Drivers/FreeRTOS/portable/GCC/ARM_CM4F/portmacro.h" 1
 978 0014 4FF05003 			mov r3, #80												
 979 0018 83F31188 		msr basepri, r3											
 980 001c BFF36F8F 		isb														
 981 0020 BFF34F8F 		dsb														
 982              	
 983              	@ 0 "" 2
 984              		.thumb
 985              		.syntax unified
 986 0024 7B61     		str	r3, [r7, #20]
 987              		.loc 2 206 5
 988 0026 00BF     		nop
 989              	.L46:
 990              	.LBE164:
 991              	.LBE163:
 992              		.loc 1 1265 9 discriminator 1
 993 0028 FEE7     		b	.L46
 994              	.L45:
1266:./Drivers/FreeRTOS/tasks.c ****         configASSERT( ( xTimeIncrement > 0U ) );
 995              		.loc 1 1266 9
 996 002a 3B68     		ldr	r3, [r7]
 997 002c 002B     		cmp	r3, #0
 998 002e 0AD1     		bne	.L47
 999              	.LBB165:
 1000              	.LBB166:
 198:Drivers/FreeRTOS/portable/GCC/ARM_CM4F/portmacro.h ****         (
 1001              		.loc 2 198 9
 1002              		.syntax unified
ARM GAS  C:\Users\Benson\AppData\Local\Temp\ccSM8CXv.s 			page 44


 1003              	@ 198 "Drivers/FreeRTOS/portable/GCC/ARM_CM4F/portmacro.h" 1
 1004 0030 4FF05003 			mov r3, #80												
 1005 0034 83F31188 		msr basepri, r3											
 1006 0038 BFF36F8F 		isb														
 1007 003c BFF34F8F 		dsb														
 1008              	
 1009              	@ 0 "" 2
 1010              		.thumb
 1011              		.syntax unified
 1012 0040 3B61     		str	r3, [r7, #16]
 1013              		.loc 2 206 5
 1014 0042 00BF     		nop
 1015              	.L48:
 1016              	.LBE166:
 1017              	.LBE165:
 1018              		.loc 1 1266 9 discriminator 2
 1019 0044 FEE7     		b	.L48
 1020              	.L47:
1267:./Drivers/FreeRTOS/tasks.c ****         configASSERT( uxSchedulerSuspended == 0 );
 1021              		.loc 1 1267 9
 1022 0046 2A4B     		ldr	r3, .L57
 1023 0048 1B68     		ldr	r3, [r3]
 1024 004a 002B     		cmp	r3, #0
 1025 004c 0AD0     		beq	.L49
 1026              	.LBB167:
 1027              	.LBB168:
 198:Drivers/FreeRTOS/portable/GCC/ARM_CM4F/portmacro.h ****         (
 1028              		.loc 2 198 9
 1029              		.syntax unified
 1030              	@ 198 "Drivers/FreeRTOS/portable/GCC/ARM_CM4F/portmacro.h" 1
 1031 004e 4FF05003 			mov r3, #80												
 1032 0052 83F31188 		msr basepri, r3											
 1033 0056 BFF36F8F 		isb														
 1034 005a BFF34F8F 		dsb														
 1035              	
 1036              	@ 0 "" 2
 1037              		.thumb
 1038              		.syntax unified
 1039 005e FB60     		str	r3, [r7, #12]
 1040              		.loc 2 206 5
 1041 0060 00BF     		nop
 1042              	.L50:
 1043              	.LBE168:
 1044              	.LBE167:
 1045              		.loc 1 1267 9 discriminator 3
 1046 0062 FEE7     		b	.L50
 1047              	.L49:
1268:./Drivers/FreeRTOS/tasks.c **** 
1269:./Drivers/FreeRTOS/tasks.c ****         vTaskSuspendAll();
 1048              		.loc 1 1269 9
 1049 0064 FFF7FEFF 		bl	vTaskSuspendAll
 1050              	.LBB169:
1270:./Drivers/FreeRTOS/tasks.c ****         {
1271:./Drivers/FreeRTOS/tasks.c ****             /* Minor optimisation.  The tick count cannot change in this
1272:./Drivers/FreeRTOS/tasks.c ****              * block. */
1273:./Drivers/FreeRTOS/tasks.c ****             const TickType_t xConstTickCount = xTickCount;
 1051              		.loc 1 1273 30
ARM GAS  C:\Users\Benson\AppData\Local\Temp\ccSM8CXv.s 			page 45


 1052 0068 224B     		ldr	r3, .L57+4
 1053 006a 1B68     		ldr	r3, [r3]
 1054 006c 3B62     		str	r3, [r7, #32]
1274:./Drivers/FreeRTOS/tasks.c **** 
1275:./Drivers/FreeRTOS/tasks.c ****             /* Generate the tick time at which the task wants to wake. */
1276:./Drivers/FreeRTOS/tasks.c ****             xTimeToWake = *pxPreviousWakeTime + xTimeIncrement;
 1055              		.loc 1 1276 27
 1056 006e 7B68     		ldr	r3, [r7, #4]
 1057 0070 1B68     		ldr	r3, [r3]
 1058              		.loc 1 1276 25
 1059 0072 3A68     		ldr	r2, [r7]
 1060 0074 1344     		add	r3, r3, r2
 1061 0076 FB61     		str	r3, [r7, #28]
1277:./Drivers/FreeRTOS/tasks.c **** 
1278:./Drivers/FreeRTOS/tasks.c ****             if( xConstTickCount < *pxPreviousWakeTime )
 1062              		.loc 1 1278 35
 1063 0078 7B68     		ldr	r3, [r7, #4]
 1064 007a 1B68     		ldr	r3, [r3]
 1065              		.loc 1 1278 15
 1066 007c 3A6A     		ldr	r2, [r7, #32]
 1067 007e 9A42     		cmp	r2, r3
 1068 0080 0BD2     		bcs	.L51
1279:./Drivers/FreeRTOS/tasks.c ****             {
1280:./Drivers/FreeRTOS/tasks.c ****                 /* The tick count has overflowed since this function was
1281:./Drivers/FreeRTOS/tasks.c ****                  * lasted called.  In this case the only time we should ever
1282:./Drivers/FreeRTOS/tasks.c ****                  * actually delay is if the wake time has also  overflowed,
1283:./Drivers/FreeRTOS/tasks.c ****                  * and the wake time is greater than the tick time.  When this
1284:./Drivers/FreeRTOS/tasks.c ****                  * is the case it is as if neither time had overflowed. */
1285:./Drivers/FreeRTOS/tasks.c ****                 if( ( xTimeToWake < *pxPreviousWakeTime ) && ( xTimeToWake > xConstTickCount ) )
 1069              		.loc 1 1285 37
 1070 0082 7B68     		ldr	r3, [r7, #4]
 1071 0084 1B68     		ldr	r3, [r3]
 1072              		.loc 1 1285 19
 1073 0086 FA69     		ldr	r2, [r7, #28]
 1074 0088 9A42     		cmp	r2, r3
 1075 008a 11D2     		bcs	.L52
 1076              		.loc 1 1285 59 discriminator 1
 1077 008c FA69     		ldr	r2, [r7, #28]
 1078 008e 3B6A     		ldr	r3, [r7, #32]
 1079 0090 9A42     		cmp	r2, r3
 1080 0092 0DD9     		bls	.L52
1286:./Drivers/FreeRTOS/tasks.c ****                 {
1287:./Drivers/FreeRTOS/tasks.c ****                     xShouldDelay = pdTRUE;
 1081              		.loc 1 1287 34
 1082 0094 0123     		movs	r3, #1
 1083 0096 7B62     		str	r3, [r7, #36]
 1084 0098 0AE0     		b	.L52
 1085              	.L51:
1288:./Drivers/FreeRTOS/tasks.c ****                 }
1289:./Drivers/FreeRTOS/tasks.c ****                 else
1290:./Drivers/FreeRTOS/tasks.c ****                 {
1291:./Drivers/FreeRTOS/tasks.c ****                     mtCOVERAGE_TEST_MARKER();
1292:./Drivers/FreeRTOS/tasks.c ****                 }
1293:./Drivers/FreeRTOS/tasks.c ****             }
1294:./Drivers/FreeRTOS/tasks.c ****             else
1295:./Drivers/FreeRTOS/tasks.c ****             {
1296:./Drivers/FreeRTOS/tasks.c ****                 /* The tick time has not overflowed.  In this case we will
ARM GAS  C:\Users\Benson\AppData\Local\Temp\ccSM8CXv.s 			page 46


1297:./Drivers/FreeRTOS/tasks.c ****                  * delay if either the wake time has overflowed, and/or the
1298:./Drivers/FreeRTOS/tasks.c ****                  * tick time is less than the wake time. */
1299:./Drivers/FreeRTOS/tasks.c ****                 if( ( xTimeToWake < *pxPreviousWakeTime ) || ( xTimeToWake > xConstTickCount ) )
 1086              		.loc 1 1299 37
 1087 009a 7B68     		ldr	r3, [r7, #4]
 1088 009c 1B68     		ldr	r3, [r3]
 1089              		.loc 1 1299 19
 1090 009e FA69     		ldr	r2, [r7, #28]
 1091 00a0 9A42     		cmp	r2, r3
 1092 00a2 03D3     		bcc	.L53
 1093              		.loc 1 1299 59 discriminator 1
 1094 00a4 FA69     		ldr	r2, [r7, #28]
 1095 00a6 3B6A     		ldr	r3, [r7, #32]
 1096 00a8 9A42     		cmp	r2, r3
 1097 00aa 01D9     		bls	.L52
 1098              	.L53:
1300:./Drivers/FreeRTOS/tasks.c ****                 {
1301:./Drivers/FreeRTOS/tasks.c ****                     xShouldDelay = pdTRUE;
 1099              		.loc 1 1301 34
 1100 00ac 0123     		movs	r3, #1
 1101 00ae 7B62     		str	r3, [r7, #36]
 1102              	.L52:
1302:./Drivers/FreeRTOS/tasks.c ****                 }
1303:./Drivers/FreeRTOS/tasks.c ****                 else
1304:./Drivers/FreeRTOS/tasks.c ****                 {
1305:./Drivers/FreeRTOS/tasks.c ****                     mtCOVERAGE_TEST_MARKER();
1306:./Drivers/FreeRTOS/tasks.c ****                 }
1307:./Drivers/FreeRTOS/tasks.c ****             }
1308:./Drivers/FreeRTOS/tasks.c **** 
1309:./Drivers/FreeRTOS/tasks.c ****             /* Update the wake time ready for the next call. */
1310:./Drivers/FreeRTOS/tasks.c ****             *pxPreviousWakeTime = xTimeToWake;
 1103              		.loc 1 1310 33
 1104 00b0 7B68     		ldr	r3, [r7, #4]
 1105 00b2 FA69     		ldr	r2, [r7, #28]
 1106 00b4 1A60     		str	r2, [r3]
1311:./Drivers/FreeRTOS/tasks.c **** 
1312:./Drivers/FreeRTOS/tasks.c ****             if( xShouldDelay != pdFALSE )
 1107              		.loc 1 1312 15
 1108 00b6 7B6A     		ldr	r3, [r7, #36]
 1109 00b8 002B     		cmp	r3, #0
 1110 00ba 06D0     		beq	.L54
1313:./Drivers/FreeRTOS/tasks.c ****             {
1314:./Drivers/FreeRTOS/tasks.c ****                 traceTASK_DELAY_UNTIL( xTimeToWake );
1315:./Drivers/FreeRTOS/tasks.c **** 
1316:./Drivers/FreeRTOS/tasks.c ****                 /* prvAddCurrentTaskToDelayedList() needs the block time, not
1317:./Drivers/FreeRTOS/tasks.c ****                  * the time to wake, so subtract the current tick count. */
1318:./Drivers/FreeRTOS/tasks.c ****                 prvAddCurrentTaskToDelayedList( xTimeToWake - xConstTickCount, pdFALSE );
 1111              		.loc 1 1318 17
 1112 00bc FA69     		ldr	r2, [r7, #28]
 1113 00be 3B6A     		ldr	r3, [r7, #32]
 1114 00c0 D31A     		subs	r3, r2, r3
 1115 00c2 0021     		movs	r1, #0
 1116 00c4 1846     		mov	r0, r3
 1117 00c6 FFF7FEFF 		bl	prvAddCurrentTaskToDelayedList
 1118              	.L54:
 1119              	.LBE169:
1319:./Drivers/FreeRTOS/tasks.c ****             }
ARM GAS  C:\Users\Benson\AppData\Local\Temp\ccSM8CXv.s 			page 47


1320:./Drivers/FreeRTOS/tasks.c ****             else
1321:./Drivers/FreeRTOS/tasks.c ****             {
1322:./Drivers/FreeRTOS/tasks.c ****                 mtCOVERAGE_TEST_MARKER();
1323:./Drivers/FreeRTOS/tasks.c ****             }
1324:./Drivers/FreeRTOS/tasks.c ****         }
1325:./Drivers/FreeRTOS/tasks.c ****         xAlreadyYielded = xTaskResumeAll();
 1120              		.loc 1 1325 27
 1121 00ca FFF7FEFF 		bl	xTaskResumeAll
 1122 00ce B861     		str	r0, [r7, #24]
1326:./Drivers/FreeRTOS/tasks.c **** 
1327:./Drivers/FreeRTOS/tasks.c ****         /* Force a reschedule if xTaskResumeAll has not already done so, we may
1328:./Drivers/FreeRTOS/tasks.c ****          * have put ourselves to sleep. */
1329:./Drivers/FreeRTOS/tasks.c ****         if( xAlreadyYielded == pdFALSE )
 1123              		.loc 1 1329 11
 1124 00d0 BB69     		ldr	r3, [r7, #24]
 1125 00d2 002B     		cmp	r3, #0
 1126 00d4 07D1     		bne	.L55
1330:./Drivers/FreeRTOS/tasks.c ****         {
1331:./Drivers/FreeRTOS/tasks.c ****             portYIELD_WITHIN_API();
 1127              		.loc 1 1331 13
 1128 00d6 084B     		ldr	r3, .L57+8
 1129 00d8 4FF08052 		mov	r2, #268435456
 1130 00dc 1A60     		str	r2, [r3]
 1131              		.syntax unified
 1132              	@ 1331 "./Drivers/FreeRTOS/tasks.c" 1
 1133 00de BFF34F8F 		dsb
 1134              	@ 0 "" 2
 1135              	@ 1331 "./Drivers/FreeRTOS/tasks.c" 1
 1136 00e2 BFF36F8F 		isb
 1137              	@ 0 "" 2
 1138              		.thumb
 1139              		.syntax unified
 1140              	.L55:
1332:./Drivers/FreeRTOS/tasks.c ****         }
1333:./Drivers/FreeRTOS/tasks.c ****         else
1334:./Drivers/FreeRTOS/tasks.c ****         {
1335:./Drivers/FreeRTOS/tasks.c ****             mtCOVERAGE_TEST_MARKER();
1336:./Drivers/FreeRTOS/tasks.c ****         }
1337:./Drivers/FreeRTOS/tasks.c **** 
1338:./Drivers/FreeRTOS/tasks.c ****         return xShouldDelay;
 1141              		.loc 1 1338 16
 1142 00e6 7B6A     		ldr	r3, [r7, #36]
1339:./Drivers/FreeRTOS/tasks.c ****     }
 1143              		.loc 1 1339 5
 1144 00e8 1846     		mov	r0, r3
 1145 00ea 2837     		adds	r7, r7, #40
 1146              	.LCFI23:
 1147              		.cfi_def_cfa_offset 8
 1148 00ec BD46     		mov	sp, r7
 1149              	.LCFI24:
 1150              		.cfi_def_cfa_register 13
 1151              		@ sp needed
 1152 00ee 80BD     		pop	{r7, pc}
 1153              	.L58:
 1154              		.align	2
 1155              	.L57:
 1156 00f0 00000000 		.word	uxSchedulerSuspended
ARM GAS  C:\Users\Benson\AppData\Local\Temp\ccSM8CXv.s 			page 48


 1157 00f4 00000000 		.word	xTickCount
 1158 00f8 04ED00E0 		.word	-536810236
 1159              		.cfi_endproc
 1160              	.LFE9:
 1162              		.section	.text.vTaskDelay,"ax",%progbits
 1163              		.align	1
 1164              		.global	vTaskDelay
 1165              		.syntax unified
 1166              		.thumb
 1167              		.thumb_func
 1168              		.fpu fpv4-sp-d16
 1170              	vTaskDelay:
 1171              	.LFB10:
1340:./Drivers/FreeRTOS/tasks.c **** 
1341:./Drivers/FreeRTOS/tasks.c **** #endif /* INCLUDE_xTaskDelayUntil */
1342:./Drivers/FreeRTOS/tasks.c **** /*-----------------------------------------------------------*/
1343:./Drivers/FreeRTOS/tasks.c **** 
1344:./Drivers/FreeRTOS/tasks.c **** #if ( INCLUDE_vTaskDelay == 1 )
1345:./Drivers/FreeRTOS/tasks.c **** 
1346:./Drivers/FreeRTOS/tasks.c ****     void vTaskDelay( const TickType_t xTicksToDelay )
1347:./Drivers/FreeRTOS/tasks.c ****     {
 1172              		.loc 1 1347 5
 1173              		.cfi_startproc
 1174              		@ args = 0, pretend = 0, frame = 16
 1175              		@ frame_needed = 1, uses_anonymous_args = 0
 1176 0000 80B5     		push	{r7, lr}
 1177              	.LCFI25:
 1178              		.cfi_def_cfa_offset 8
 1179              		.cfi_offset 7, -8
 1180              		.cfi_offset 14, -4
 1181 0002 84B0     		sub	sp, sp, #16
 1182              	.LCFI26:
 1183              		.cfi_def_cfa_offset 24
 1184 0004 00AF     		add	r7, sp, #0
 1185              	.LCFI27:
 1186              		.cfi_def_cfa_register 7
 1187 0006 7860     		str	r0, [r7, #4]
1348:./Drivers/FreeRTOS/tasks.c ****         BaseType_t xAlreadyYielded = pdFALSE;
 1188              		.loc 1 1348 20
 1189 0008 0023     		movs	r3, #0
 1190 000a FB60     		str	r3, [r7, #12]
1349:./Drivers/FreeRTOS/tasks.c **** 
1350:./Drivers/FreeRTOS/tasks.c ****         /* A delay time of zero just forces a reschedule. */
1351:./Drivers/FreeRTOS/tasks.c ****         if( xTicksToDelay > ( TickType_t ) 0U )
 1191              		.loc 1 1351 11
 1192 000c 7B68     		ldr	r3, [r7, #4]
 1193 000e 002B     		cmp	r3, #0
 1194 0010 17D0     		beq	.L60
1352:./Drivers/FreeRTOS/tasks.c ****         {
1353:./Drivers/FreeRTOS/tasks.c ****             configASSERT( uxSchedulerSuspended == 0 );
 1195              		.loc 1 1353 13
 1196 0012 134B     		ldr	r3, .L65
 1197 0014 1B68     		ldr	r3, [r3]
 1198 0016 002B     		cmp	r3, #0
 1199 0018 0AD0     		beq	.L61
 1200              	.LBB170:
 1201              	.LBB171:
ARM GAS  C:\Users\Benson\AppData\Local\Temp\ccSM8CXv.s 			page 49


 198:Drivers/FreeRTOS/portable/GCC/ARM_CM4F/portmacro.h ****         (
 1202              		.loc 2 198 9
 1203              		.syntax unified
 1204              	@ 198 "Drivers/FreeRTOS/portable/GCC/ARM_CM4F/portmacro.h" 1
 1205 001a 4FF05003 			mov r3, #80												
 1206 001e 83F31188 		msr basepri, r3											
 1207 0022 BFF36F8F 		isb														
 1208 0026 BFF34F8F 		dsb														
 1209              	
 1210              	@ 0 "" 2
 1211              		.thumb
 1212              		.syntax unified
 1213 002a BB60     		str	r3, [r7, #8]
 1214              		.loc 2 206 5
 1215 002c 00BF     		nop
 1216              	.L62:
 1217              	.LBE171:
 1218              	.LBE170:
 1219              		.loc 1 1353 13 discriminator 1
 1220 002e FEE7     		b	.L62
 1221              	.L61:
1354:./Drivers/FreeRTOS/tasks.c ****             vTaskSuspendAll();
 1222              		.loc 1 1354 13
 1223 0030 FFF7FEFF 		bl	vTaskSuspendAll
1355:./Drivers/FreeRTOS/tasks.c ****             {
1356:./Drivers/FreeRTOS/tasks.c ****                 traceTASK_DELAY();
1357:./Drivers/FreeRTOS/tasks.c **** 
1358:./Drivers/FreeRTOS/tasks.c ****                 /* A task that is removed from the event list while the
1359:./Drivers/FreeRTOS/tasks.c ****                  * scheduler is suspended will not get placed in the ready
1360:./Drivers/FreeRTOS/tasks.c ****                  * list or removed from the blocked list until the scheduler
1361:./Drivers/FreeRTOS/tasks.c ****                  * is resumed.
1362:./Drivers/FreeRTOS/tasks.c ****                  *
1363:./Drivers/FreeRTOS/tasks.c ****                  * This task cannot be in an event list as it is the currently
1364:./Drivers/FreeRTOS/tasks.c ****                  * executing task. */
1365:./Drivers/FreeRTOS/tasks.c ****                 prvAddCurrentTaskToDelayedList( xTicksToDelay, pdFALSE );
 1224              		.loc 1 1365 17
 1225 0034 0021     		movs	r1, #0
 1226 0036 7868     		ldr	r0, [r7, #4]
 1227 0038 FFF7FEFF 		bl	prvAddCurrentTaskToDelayedList
1366:./Drivers/FreeRTOS/tasks.c ****             }
1367:./Drivers/FreeRTOS/tasks.c ****             xAlreadyYielded = xTaskResumeAll();
 1228              		.loc 1 1367 31
 1229 003c FFF7FEFF 		bl	xTaskResumeAll
 1230 0040 F860     		str	r0, [r7, #12]
 1231              	.L60:
1368:./Drivers/FreeRTOS/tasks.c ****         }
1369:./Drivers/FreeRTOS/tasks.c ****         else
1370:./Drivers/FreeRTOS/tasks.c ****         {
1371:./Drivers/FreeRTOS/tasks.c ****             mtCOVERAGE_TEST_MARKER();
1372:./Drivers/FreeRTOS/tasks.c ****         }
1373:./Drivers/FreeRTOS/tasks.c **** 
1374:./Drivers/FreeRTOS/tasks.c ****         /* Force a reschedule if xTaskResumeAll has not already done so, we may
1375:./Drivers/FreeRTOS/tasks.c ****          * have put ourselves to sleep. */
1376:./Drivers/FreeRTOS/tasks.c ****         if( xAlreadyYielded == pdFALSE )
 1232              		.loc 1 1376 11
 1233 0042 FB68     		ldr	r3, [r7, #12]
 1234 0044 002B     		cmp	r3, #0
ARM GAS  C:\Users\Benson\AppData\Local\Temp\ccSM8CXv.s 			page 50


 1235 0046 07D1     		bne	.L64
1377:./Drivers/FreeRTOS/tasks.c ****         {
1378:./Drivers/FreeRTOS/tasks.c ****             portYIELD_WITHIN_API();
 1236              		.loc 1 1378 13
 1237 0048 064B     		ldr	r3, .L65+4
 1238 004a 4FF08052 		mov	r2, #268435456
 1239 004e 1A60     		str	r2, [r3]
 1240              		.syntax unified
 1241              	@ 1378 "./Drivers/FreeRTOS/tasks.c" 1
 1242 0050 BFF34F8F 		dsb
 1243              	@ 0 "" 2
 1244              	@ 1378 "./Drivers/FreeRTOS/tasks.c" 1
 1245 0054 BFF36F8F 		isb
 1246              	@ 0 "" 2
 1247              		.thumb
 1248              		.syntax unified
 1249              	.L64:
1379:./Drivers/FreeRTOS/tasks.c ****         }
1380:./Drivers/FreeRTOS/tasks.c ****         else
1381:./Drivers/FreeRTOS/tasks.c ****         {
1382:./Drivers/FreeRTOS/tasks.c ****             mtCOVERAGE_TEST_MARKER();
1383:./Drivers/FreeRTOS/tasks.c ****         }
1384:./Drivers/FreeRTOS/tasks.c ****     }
 1250              		.loc 1 1384 5
 1251 0058 00BF     		nop
 1252 005a 1037     		adds	r7, r7, #16
 1253              	.LCFI28:
 1254              		.cfi_def_cfa_offset 8
 1255 005c BD46     		mov	sp, r7
 1256              	.LCFI29:
 1257              		.cfi_def_cfa_register 13
 1258              		@ sp needed
 1259 005e 80BD     		pop	{r7, pc}
 1260              	.L66:
 1261              		.align	2
 1262              	.L65:
 1263 0060 00000000 		.word	uxSchedulerSuspended
 1264 0064 04ED00E0 		.word	-536810236
 1265              		.cfi_endproc
 1266              	.LFE10:
 1268              		.section	.text.eTaskGetState,"ax",%progbits
 1269              		.align	1
 1270              		.global	eTaskGetState
 1271              		.syntax unified
 1272              		.thumb
 1273              		.thumb_func
 1274              		.fpu fpv4-sp-d16
 1276              	eTaskGetState:
 1277              	.LFB11:
1385:./Drivers/FreeRTOS/tasks.c **** 
1386:./Drivers/FreeRTOS/tasks.c **** #endif /* INCLUDE_vTaskDelay */
1387:./Drivers/FreeRTOS/tasks.c **** /*-----------------------------------------------------------*/
1388:./Drivers/FreeRTOS/tasks.c **** 
1389:./Drivers/FreeRTOS/tasks.c **** #if ( ( INCLUDE_eTaskGetState == 1 ) || ( configUSE_TRACE_FACILITY == 1 ) || ( INCLUDE_xTaskAbortDe
1390:./Drivers/FreeRTOS/tasks.c **** 
1391:./Drivers/FreeRTOS/tasks.c ****     eTaskState eTaskGetState( TaskHandle_t xTask )
1392:./Drivers/FreeRTOS/tasks.c ****     {
ARM GAS  C:\Users\Benson\AppData\Local\Temp\ccSM8CXv.s 			page 51


 1278              		.loc 1 1392 5
 1279              		.cfi_startproc
 1280              		@ args = 0, pretend = 0, frame = 40
 1281              		@ frame_needed = 1, uses_anonymous_args = 0
 1282 0000 80B5     		push	{r7, lr}
 1283              	.LCFI30:
 1284              		.cfi_def_cfa_offset 8
 1285              		.cfi_offset 7, -8
 1286              		.cfi_offset 14, -4
 1287 0002 8AB0     		sub	sp, sp, #40
 1288              	.LCFI31:
 1289              		.cfi_def_cfa_offset 48
 1290 0004 00AF     		add	r7, sp, #0
 1291              	.LCFI32:
 1292              		.cfi_def_cfa_register 7
 1293 0006 7860     		str	r0, [r7, #4]
1393:./Drivers/FreeRTOS/tasks.c ****         eTaskState eReturn;
1394:./Drivers/FreeRTOS/tasks.c ****         List_t const * pxStateList, * pxDelayedList, * pxOverflowedDelayedList;
1395:./Drivers/FreeRTOS/tasks.c ****         const TCB_t * const pxTCB = xTask;
 1294              		.loc 1 1395 29
 1295 0008 7B68     		ldr	r3, [r7, #4]
 1296 000a FB61     		str	r3, [r7, #28]
1396:./Drivers/FreeRTOS/tasks.c **** 
1397:./Drivers/FreeRTOS/tasks.c ****         configASSERT( pxTCB );
 1297              		.loc 1 1397 9
 1298 000c FB69     		ldr	r3, [r7, #28]
 1299 000e 002B     		cmp	r3, #0
 1300 0010 0AD1     		bne	.L68
 1301              	.LBB172:
 1302              	.LBB173:
 198:Drivers/FreeRTOS/portable/GCC/ARM_CM4F/portmacro.h ****         (
 1303              		.loc 2 198 9
 1304              		.syntax unified
 1305              	@ 198 "Drivers/FreeRTOS/portable/GCC/ARM_CM4F/portmacro.h" 1
 1306 0012 4FF05003 			mov r3, #80												
 1307 0016 83F31188 		msr basepri, r3											
 1308 001a BFF36F8F 		isb														
 1309 001e BFF34F8F 		dsb														
 1310              	
 1311              	@ 0 "" 2
 1312              		.thumb
 1313              		.syntax unified
 1314 0022 FB60     		str	r3, [r7, #12]
 1315              		.loc 2 206 5
 1316 0024 00BF     		nop
 1317              	.L69:
 1318              	.LBE173:
 1319              	.LBE172:
 1320              		.loc 1 1397 9 discriminator 1
 1321 0026 FEE7     		b	.L69
 1322              	.L68:
1398:./Drivers/FreeRTOS/tasks.c **** 
1399:./Drivers/FreeRTOS/tasks.c ****         if( pxTCB == pxCurrentTCB )
 1323              		.loc 1 1399 19
 1324 0028 2D4B     		ldr	r3, .L83
 1325 002a 1B68     		ldr	r3, [r3]
 1326              		.loc 1 1399 11
ARM GAS  C:\Users\Benson\AppData\Local\Temp\ccSM8CXv.s 			page 52


 1327 002c FA69     		ldr	r2, [r7, #28]
 1328 002e 9A42     		cmp	r2, r3
 1329 0030 03D1     		bne	.L70
1400:./Drivers/FreeRTOS/tasks.c ****         {
1401:./Drivers/FreeRTOS/tasks.c ****             /* The task calling this function is querying its own state. */
1402:./Drivers/FreeRTOS/tasks.c ****             eReturn = eRunning;
 1330              		.loc 1 1402 21
 1331 0032 0023     		movs	r3, #0
 1332 0034 87F82730 		strb	r3, [r7, #39]
 1333 0038 4BE0     		b	.L71
 1334              	.L70:
1403:./Drivers/FreeRTOS/tasks.c ****         }
1404:./Drivers/FreeRTOS/tasks.c ****         else
1405:./Drivers/FreeRTOS/tasks.c ****         {
1406:./Drivers/FreeRTOS/tasks.c ****             taskENTER_CRITICAL();
 1335              		.loc 1 1406 13
 1336 003a FFF7FEFF 		bl	vPortEnterCritical
1407:./Drivers/FreeRTOS/tasks.c ****             {
1408:./Drivers/FreeRTOS/tasks.c ****                 pxStateList = listLIST_ITEM_CONTAINER( &( pxTCB->xStateListItem ) );
 1337              		.loc 1 1408 29
 1338 003e FB69     		ldr	r3, [r7, #28]
 1339 0040 5B69     		ldr	r3, [r3, #20]
 1340 0042 BB61     		str	r3, [r7, #24]
1409:./Drivers/FreeRTOS/tasks.c ****                 pxDelayedList = pxDelayedTaskList;
 1341              		.loc 1 1409 31
 1342 0044 274B     		ldr	r3, .L83+4
 1343 0046 1B68     		ldr	r3, [r3]
 1344 0048 7B61     		str	r3, [r7, #20]
1410:./Drivers/FreeRTOS/tasks.c ****                 pxOverflowedDelayedList = pxOverflowDelayedTaskList;
 1345              		.loc 1 1410 41
 1346 004a 274B     		ldr	r3, .L83+8
 1347 004c 1B68     		ldr	r3, [r3]
 1348 004e 3B61     		str	r3, [r7, #16]
1411:./Drivers/FreeRTOS/tasks.c ****             }
1412:./Drivers/FreeRTOS/tasks.c ****             taskEXIT_CRITICAL();
 1349              		.loc 1 1412 13
 1350 0050 FFF7FEFF 		bl	vPortExitCritical
1413:./Drivers/FreeRTOS/tasks.c **** 
1414:./Drivers/FreeRTOS/tasks.c ****             if( ( pxStateList == pxDelayedList ) || ( pxStateList == pxOverflowedDelayedList ) )
 1351              		.loc 1 1414 15
 1352 0054 BA69     		ldr	r2, [r7, #24]
 1353 0056 7B69     		ldr	r3, [r7, #20]
 1354 0058 9A42     		cmp	r2, r3
 1355 005a 03D0     		beq	.L72
 1356              		.loc 1 1414 50 discriminator 1
 1357 005c BA69     		ldr	r2, [r7, #24]
 1358 005e 3B69     		ldr	r3, [r7, #16]
 1359 0060 9A42     		cmp	r2, r3
 1360 0062 03D1     		bne	.L73
 1361              	.L72:
1415:./Drivers/FreeRTOS/tasks.c ****             {
1416:./Drivers/FreeRTOS/tasks.c ****                 /* The task being queried is referenced from one of the Blocked
1417:./Drivers/FreeRTOS/tasks.c ****                  * lists. */
1418:./Drivers/FreeRTOS/tasks.c ****                 eReturn = eBlocked;
 1362              		.loc 1 1418 25
 1363 0064 0223     		movs	r3, #2
 1364 0066 87F82730 		strb	r3, [r7, #39]
ARM GAS  C:\Users\Benson\AppData\Local\Temp\ccSM8CXv.s 			page 53


 1365 006a 32E0     		b	.L71
 1366              	.L73:
1419:./Drivers/FreeRTOS/tasks.c ****             }
1420:./Drivers/FreeRTOS/tasks.c **** 
1421:./Drivers/FreeRTOS/tasks.c ****             #if ( INCLUDE_vTaskSuspend == 1 )
1422:./Drivers/FreeRTOS/tasks.c ****                 else if( pxStateList == &xSuspendedTaskList )
 1367              		.loc 1 1422 24
 1368 006c BB69     		ldr	r3, [r7, #24]
 1369 006e 1F4A     		ldr	r2, .L83+12
 1370 0070 9342     		cmp	r3, r2
 1371 0072 20D1     		bne	.L74
1423:./Drivers/FreeRTOS/tasks.c ****                 {
1424:./Drivers/FreeRTOS/tasks.c ****                     /* The task being queried is referenced from the suspended
1425:./Drivers/FreeRTOS/tasks.c ****                      * list.  Is it genuinely suspended or is it blocked
1426:./Drivers/FreeRTOS/tasks.c ****                      * indefinitely? */
1427:./Drivers/FreeRTOS/tasks.c ****                     if( listLIST_ITEM_CONTAINER( &( pxTCB->xEventListItem ) ) == NULL )
 1372              		.loc 1 1427 25
 1373 0074 FB69     		ldr	r3, [r7, #28]
 1374 0076 9B6A     		ldr	r3, [r3, #40]
 1375              		.loc 1 1427 23
 1376 0078 002B     		cmp	r3, #0
 1377 007a 18D1     		bne	.L75
 1378              	.LBB174:
1428:./Drivers/FreeRTOS/tasks.c ****                     {
1429:./Drivers/FreeRTOS/tasks.c ****                         #if ( configUSE_TASK_NOTIFICATIONS == 1 )
1430:./Drivers/FreeRTOS/tasks.c ****                             {
1431:./Drivers/FreeRTOS/tasks.c ****                                 BaseType_t x;
1432:./Drivers/FreeRTOS/tasks.c **** 
1433:./Drivers/FreeRTOS/tasks.c ****                                 /* The task does not appear on the event list item of
1434:./Drivers/FreeRTOS/tasks.c ****                                  * and of the RTOS objects, but could still be in the
1435:./Drivers/FreeRTOS/tasks.c ****                                  * blocked state if it is waiting on its notification
1436:./Drivers/FreeRTOS/tasks.c ****                                  * rather than waiting on an object.  If not, is
1437:./Drivers/FreeRTOS/tasks.c ****                                  * suspended. */
1438:./Drivers/FreeRTOS/tasks.c ****                                 eReturn = eSuspended;
 1379              		.loc 1 1438 41
 1380 007c 0323     		movs	r3, #3
 1381 007e 87F82730 		strb	r3, [r7, #39]
1439:./Drivers/FreeRTOS/tasks.c **** 
1440:./Drivers/FreeRTOS/tasks.c ****                                 for( x = 0; x < configTASK_NOTIFICATION_ARRAY_ENTRIES; x++ )
 1382              		.loc 1 1440 40
 1383 0082 0023     		movs	r3, #0
 1384 0084 3B62     		str	r3, [r7, #32]
 1385              		.loc 1 1440 33
 1386 0086 0EE0     		b	.L76
 1387              	.L79:
1441:./Drivers/FreeRTOS/tasks.c ****                                 {
1442:./Drivers/FreeRTOS/tasks.c ****                                     if( pxTCB->ucNotifyState[ x ] == taskWAITING_NOTIFICATION )
 1388              		.loc 1 1442 61
 1389 0088 FA69     		ldr	r2, [r7, #28]
 1390 008a 3B6A     		ldr	r3, [r7, #32]
 1391 008c 1344     		add	r3, r3, r2
 1392 008e 5433     		adds	r3, r3, #84
 1393 0090 1B78     		ldrb	r3, [r3]
 1394 0092 DBB2     		uxtb	r3, r3
 1395              		.loc 1 1442 39
 1396 0094 012B     		cmp	r3, #1
 1397 0096 03D1     		bne	.L77
ARM GAS  C:\Users\Benson\AppData\Local\Temp\ccSM8CXv.s 			page 54


1443:./Drivers/FreeRTOS/tasks.c ****                                     {
1444:./Drivers/FreeRTOS/tasks.c ****                                         eReturn = eBlocked;
 1398              		.loc 1 1444 49
 1399 0098 0223     		movs	r3, #2
 1400 009a 87F82730 		strb	r3, [r7, #39]
1445:./Drivers/FreeRTOS/tasks.c ****                                         break;
 1401              		.loc 1 1445 41
 1402 009e 18E0     		b	.L71
 1403              	.L77:
1440:./Drivers/FreeRTOS/tasks.c ****                                 {
 1404              		.loc 1 1440 89 discriminator 2
 1405 00a0 3B6A     		ldr	r3, [r7, #32]
 1406 00a2 0133     		adds	r3, r3, #1
 1407 00a4 3B62     		str	r3, [r7, #32]
 1408              	.L76:
1440:./Drivers/FreeRTOS/tasks.c ****                                 {
 1409              		.loc 1 1440 33 discriminator 1
 1410 00a6 3B6A     		ldr	r3, [r7, #32]
 1411 00a8 002B     		cmp	r3, #0
 1412 00aa EDDD     		ble	.L79
 1413 00ac 11E0     		b	.L71
 1414              	.L75:
 1415              	.LBE174:
1446:./Drivers/FreeRTOS/tasks.c ****                                     }
1447:./Drivers/FreeRTOS/tasks.c ****                                 }
1448:./Drivers/FreeRTOS/tasks.c ****                             }
1449:./Drivers/FreeRTOS/tasks.c ****                         #else /* if ( configUSE_TASK_NOTIFICATIONS == 1 ) */
1450:./Drivers/FreeRTOS/tasks.c ****                             {
1451:./Drivers/FreeRTOS/tasks.c ****                                 eReturn = eSuspended;
1452:./Drivers/FreeRTOS/tasks.c ****                             }
1453:./Drivers/FreeRTOS/tasks.c ****                         #endif /* if ( configUSE_TASK_NOTIFICATIONS == 1 ) */
1454:./Drivers/FreeRTOS/tasks.c ****                     }
1455:./Drivers/FreeRTOS/tasks.c ****                     else
1456:./Drivers/FreeRTOS/tasks.c ****                     {
1457:./Drivers/FreeRTOS/tasks.c ****                         eReturn = eBlocked;
 1416              		.loc 1 1457 33
 1417 00ae 0223     		movs	r3, #2
 1418 00b0 87F82730 		strb	r3, [r7, #39]
 1419 00b4 0DE0     		b	.L71
 1420              	.L74:
1458:./Drivers/FreeRTOS/tasks.c ****                     }
1459:./Drivers/FreeRTOS/tasks.c ****                 }
1460:./Drivers/FreeRTOS/tasks.c ****             #endif /* if ( INCLUDE_vTaskSuspend == 1 ) */
1461:./Drivers/FreeRTOS/tasks.c **** 
1462:./Drivers/FreeRTOS/tasks.c ****             #if ( INCLUDE_vTaskDelete == 1 )
1463:./Drivers/FreeRTOS/tasks.c ****                 else if( ( pxStateList == &xTasksWaitingTermination ) || ( pxStateList == NULL ) )
 1421              		.loc 1 1463 24
 1422 00b6 BB69     		ldr	r3, [r7, #24]
 1423 00b8 0D4A     		ldr	r2, .L83+16
 1424 00ba 9342     		cmp	r3, r2
 1425 00bc 02D0     		beq	.L80
 1426              		.loc 1 1463 71 discriminator 1
 1427 00be BB69     		ldr	r3, [r7, #24]
 1428 00c0 002B     		cmp	r3, #0
 1429 00c2 03D1     		bne	.L81
 1430              	.L80:
1464:./Drivers/FreeRTOS/tasks.c ****                 {
ARM GAS  C:\Users\Benson\AppData\Local\Temp\ccSM8CXv.s 			page 55


1465:./Drivers/FreeRTOS/tasks.c ****                     /* The task being queried is referenced from the deleted
1466:./Drivers/FreeRTOS/tasks.c ****                      * tasks list, or it is not referenced from any lists at
1467:./Drivers/FreeRTOS/tasks.c ****                      * all. */
1468:./Drivers/FreeRTOS/tasks.c ****                     eReturn = eDeleted;
 1431              		.loc 1 1468 29
 1432 00c4 0423     		movs	r3, #4
 1433 00c6 87F82730 		strb	r3, [r7, #39]
 1434 00ca 02E0     		b	.L71
 1435              	.L81:
1469:./Drivers/FreeRTOS/tasks.c ****                 }
1470:./Drivers/FreeRTOS/tasks.c ****             #endif
1471:./Drivers/FreeRTOS/tasks.c **** 
1472:./Drivers/FreeRTOS/tasks.c ****             else /*lint !e525 Negative indentation is intended to make use of pre-processor clearer
1473:./Drivers/FreeRTOS/tasks.c ****             {
1474:./Drivers/FreeRTOS/tasks.c ****                 /* If the task is not in any other state, it must be in the
1475:./Drivers/FreeRTOS/tasks.c ****                  * Ready (including pending ready) state. */
1476:./Drivers/FreeRTOS/tasks.c ****                 eReturn = eReady;
 1436              		.loc 1 1476 25
 1437 00cc 0123     		movs	r3, #1
 1438 00ce 87F82730 		strb	r3, [r7, #39]
 1439              	.L71:
1477:./Drivers/FreeRTOS/tasks.c ****             }
1478:./Drivers/FreeRTOS/tasks.c ****         }
1479:./Drivers/FreeRTOS/tasks.c **** 
1480:./Drivers/FreeRTOS/tasks.c ****         return eReturn;
 1440              		.loc 1 1480 16
 1441 00d2 97F82730 		ldrb	r3, [r7, #39]	@ zero_extendqisi2
1481:./Drivers/FreeRTOS/tasks.c ****     } /*lint !e818 xTask cannot be a pointer to const because it is a typedef. */
 1442              		.loc 1 1481 5
 1443 00d6 1846     		mov	r0, r3
 1444 00d8 2837     		adds	r7, r7, #40
 1445              	.LCFI33:
 1446              		.cfi_def_cfa_offset 8
 1447 00da BD46     		mov	sp, r7
 1448              	.LCFI34:
 1449              		.cfi_def_cfa_register 13
 1450              		@ sp needed
 1451 00dc 80BD     		pop	{r7, pc}
 1452              	.L84:
 1453 00de 00BF     		.align	2
 1454              	.L83:
 1455 00e0 00000000 		.word	pxCurrentTCB
 1456 00e4 00000000 		.word	pxDelayedTaskList
 1457 00e8 00000000 		.word	pxOverflowDelayedTaskList
 1458 00ec 00000000 		.word	xSuspendedTaskList
 1459 00f0 00000000 		.word	xTasksWaitingTermination
 1460              		.cfi_endproc
 1461              	.LFE11:
 1463              		.section	.text.uxTaskPriorityGet,"ax",%progbits
 1464              		.align	1
 1465              		.global	uxTaskPriorityGet
 1466              		.syntax unified
 1467              		.thumb
 1468              		.thumb_func
 1469              		.fpu fpv4-sp-d16
 1471              	uxTaskPriorityGet:
 1472              	.LFB12:
ARM GAS  C:\Users\Benson\AppData\Local\Temp\ccSM8CXv.s 			page 56


1482:./Drivers/FreeRTOS/tasks.c **** 
1483:./Drivers/FreeRTOS/tasks.c **** #endif /* INCLUDE_eTaskGetState */
1484:./Drivers/FreeRTOS/tasks.c **** /*-----------------------------------------------------------*/
1485:./Drivers/FreeRTOS/tasks.c **** 
1486:./Drivers/FreeRTOS/tasks.c **** #if ( INCLUDE_uxTaskPriorityGet == 1 )
1487:./Drivers/FreeRTOS/tasks.c **** 
1488:./Drivers/FreeRTOS/tasks.c ****     UBaseType_t uxTaskPriorityGet( const TaskHandle_t xTask )
1489:./Drivers/FreeRTOS/tasks.c ****     {
 1473              		.loc 1 1489 5
 1474              		.cfi_startproc
 1475              		@ args = 0, pretend = 0, frame = 16
 1476              		@ frame_needed = 1, uses_anonymous_args = 0
 1477 0000 80B5     		push	{r7, lr}
 1478              	.LCFI35:
 1479              		.cfi_def_cfa_offset 8
 1480              		.cfi_offset 7, -8
 1481              		.cfi_offset 14, -4
 1482 0002 84B0     		sub	sp, sp, #16
 1483              	.LCFI36:
 1484              		.cfi_def_cfa_offset 24
 1485 0004 00AF     		add	r7, sp, #0
 1486              	.LCFI37:
 1487              		.cfi_def_cfa_register 7
 1488 0006 7860     		str	r0, [r7, #4]
1490:./Drivers/FreeRTOS/tasks.c ****         TCB_t const * pxTCB;
1491:./Drivers/FreeRTOS/tasks.c ****         UBaseType_t uxReturn;
1492:./Drivers/FreeRTOS/tasks.c **** 
1493:./Drivers/FreeRTOS/tasks.c ****         taskENTER_CRITICAL();
 1489              		.loc 1 1493 9
 1490 0008 FFF7FEFF 		bl	vPortEnterCritical
1494:./Drivers/FreeRTOS/tasks.c ****         {
1495:./Drivers/FreeRTOS/tasks.c ****             /* If null is passed in here then it is the priority of the task
1496:./Drivers/FreeRTOS/tasks.c ****              * that called uxTaskPriorityGet() that is being queried. */
1497:./Drivers/FreeRTOS/tasks.c ****             pxTCB = prvGetTCBFromHandle( xTask );
 1491              		.loc 1 1497 21
 1492 000c 7B68     		ldr	r3, [r7, #4]
 1493 000e 002B     		cmp	r3, #0
 1494 0010 02D1     		bne	.L86
 1495              		.loc 1 1497 21 is_stmt 0 discriminator 1
 1496 0012 074B     		ldr	r3, .L89
 1497 0014 1B68     		ldr	r3, [r3]
 1498 0016 00E0     		b	.L87
 1499              	.L86:
 1500              		.loc 1 1497 21 discriminator 2
 1501 0018 7B68     		ldr	r3, [r7, #4]
 1502              	.L87:
 1503              		.loc 1 1497 19 is_stmt 1 discriminator 4
 1504 001a FB60     		str	r3, [r7, #12]
1498:./Drivers/FreeRTOS/tasks.c ****             uxReturn = pxTCB->uxPriority;
 1505              		.loc 1 1498 22 discriminator 4
 1506 001c FB68     		ldr	r3, [r7, #12]
 1507 001e DB6A     		ldr	r3, [r3, #44]
 1508 0020 BB60     		str	r3, [r7, #8]
1499:./Drivers/FreeRTOS/tasks.c ****         }
1500:./Drivers/FreeRTOS/tasks.c ****         taskEXIT_CRITICAL();
 1509              		.loc 1 1500 9 discriminator 4
 1510 0022 FFF7FEFF 		bl	vPortExitCritical
ARM GAS  C:\Users\Benson\AppData\Local\Temp\ccSM8CXv.s 			page 57


1501:./Drivers/FreeRTOS/tasks.c **** 
1502:./Drivers/FreeRTOS/tasks.c ****         return uxReturn;
 1511              		.loc 1 1502 16 discriminator 4
 1512 0026 BB68     		ldr	r3, [r7, #8]
1503:./Drivers/FreeRTOS/tasks.c ****     }
 1513              		.loc 1 1503 5 discriminator 4
 1514 0028 1846     		mov	r0, r3
 1515 002a 1037     		adds	r7, r7, #16
 1516              	.LCFI38:
 1517              		.cfi_def_cfa_offset 8
 1518 002c BD46     		mov	sp, r7
 1519              	.LCFI39:
 1520              		.cfi_def_cfa_register 13
 1521              		@ sp needed
 1522 002e 80BD     		pop	{r7, pc}
 1523              	.L90:
 1524              		.align	2
 1525              	.L89:
 1526 0030 00000000 		.word	pxCurrentTCB
 1527              		.cfi_endproc
 1528              	.LFE12:
 1530              		.section	.text.uxTaskPriorityGetFromISR,"ax",%progbits
 1531              		.align	1
 1532              		.global	uxTaskPriorityGetFromISR
 1533              		.syntax unified
 1534              		.thumb
 1535              		.thumb_func
 1536              		.fpu fpv4-sp-d16
 1538              	uxTaskPriorityGetFromISR:
 1539              	.LFB13:
1504:./Drivers/FreeRTOS/tasks.c **** 
1505:./Drivers/FreeRTOS/tasks.c **** #endif /* INCLUDE_uxTaskPriorityGet */
1506:./Drivers/FreeRTOS/tasks.c **** /*-----------------------------------------------------------*/
1507:./Drivers/FreeRTOS/tasks.c **** 
1508:./Drivers/FreeRTOS/tasks.c **** #if ( INCLUDE_uxTaskPriorityGet == 1 )
1509:./Drivers/FreeRTOS/tasks.c **** 
1510:./Drivers/FreeRTOS/tasks.c ****     UBaseType_t uxTaskPriorityGetFromISR( const TaskHandle_t xTask )
1511:./Drivers/FreeRTOS/tasks.c ****     {
 1540              		.loc 1 1511 5
 1541              		.cfi_startproc
 1542              		@ args = 0, pretend = 0, frame = 32
 1543              		@ frame_needed = 1, uses_anonymous_args = 0
 1544 0000 80B5     		push	{r7, lr}
 1545              	.LCFI40:
 1546              		.cfi_def_cfa_offset 8
 1547              		.cfi_offset 7, -8
 1548              		.cfi_offset 14, -4
 1549 0002 88B0     		sub	sp, sp, #32
 1550              	.LCFI41:
 1551              		.cfi_def_cfa_offset 40
 1552 0004 00AF     		add	r7, sp, #0
 1553              	.LCFI42:
 1554              		.cfi_def_cfa_register 7
 1555 0006 7860     		str	r0, [r7, #4]
1512:./Drivers/FreeRTOS/tasks.c ****         TCB_t const * pxTCB;
1513:./Drivers/FreeRTOS/tasks.c ****         UBaseType_t uxReturn, uxSavedInterruptState;
1514:./Drivers/FreeRTOS/tasks.c **** 
ARM GAS  C:\Users\Benson\AppData\Local\Temp\ccSM8CXv.s 			page 58


1515:./Drivers/FreeRTOS/tasks.c ****         /* RTOS ports that support interrupt nesting have the concept of a
1516:./Drivers/FreeRTOS/tasks.c ****          * maximum  system call (or maximum API call) interrupt priority.
1517:./Drivers/FreeRTOS/tasks.c ****          * Interrupts that are  above the maximum system call priority are keep
1518:./Drivers/FreeRTOS/tasks.c ****          * permanently enabled, even when the RTOS kernel is in a critical section,
1519:./Drivers/FreeRTOS/tasks.c ****          * but cannot make any calls to FreeRTOS API functions.  If configASSERT()
1520:./Drivers/FreeRTOS/tasks.c ****          * is defined in FreeRTOSConfig.h then
1521:./Drivers/FreeRTOS/tasks.c ****          * portASSERT_IF_INTERRUPT_PRIORITY_INVALID() will result in an assertion
1522:./Drivers/FreeRTOS/tasks.c ****          * failure if a FreeRTOS API function is called from an interrupt that has
1523:./Drivers/FreeRTOS/tasks.c ****          * been assigned a priority above the configured maximum system call
1524:./Drivers/FreeRTOS/tasks.c ****          * priority.  Only FreeRTOS functions that end in FromISR can be called
1525:./Drivers/FreeRTOS/tasks.c ****          * from interrupts  that have been assigned a priority at or (logically)
1526:./Drivers/FreeRTOS/tasks.c ****          * below the maximum system call interrupt priority.  FreeRTOS maintains a
1527:./Drivers/FreeRTOS/tasks.c ****          * separate interrupt safe API to ensure interrupt entry is as fast and as
1528:./Drivers/FreeRTOS/tasks.c ****          * simple as possible.  More information (albeit Cortex-M specific) is
1529:./Drivers/FreeRTOS/tasks.c ****          * provided on the following link:
1530:./Drivers/FreeRTOS/tasks.c ****          * https://www.FreeRTOS.org/RTOS-Cortex-M3-M4.html */
1531:./Drivers/FreeRTOS/tasks.c ****         portASSERT_IF_INTERRUPT_PRIORITY_INVALID();
 1556              		.loc 1 1531 9
 1557 0008 FFF7FEFF 		bl	vPortValidateInterruptPriority
 1558              	.LBB175:
 1559              	.LBB176:
 207:Drivers/FreeRTOS/portable/GCC/ARM_CM4F/portmacro.h **** 
 208:Drivers/FreeRTOS/portable/GCC/ARM_CM4F/portmacro.h **** /*-----------------------------------------------------------*/
 209:Drivers/FreeRTOS/portable/GCC/ARM_CM4F/portmacro.h **** 
 210:Drivers/FreeRTOS/portable/GCC/ARM_CM4F/portmacro.h ****     portFORCE_INLINE static uint32_t ulPortRaiseBASEPRI( void )
 211:Drivers/FreeRTOS/portable/GCC/ARM_CM4F/portmacro.h ****     {
 212:Drivers/FreeRTOS/portable/GCC/ARM_CM4F/portmacro.h ****         uint32_t ulOriginalBASEPRI, ulNewBASEPRI;
 213:Drivers/FreeRTOS/portable/GCC/ARM_CM4F/portmacro.h **** 
 214:Drivers/FreeRTOS/portable/GCC/ARM_CM4F/portmacro.h ****         __asm volatile
 1560              		.loc 2 214 9
 1561              		.syntax unified
 1562              	@ 214 "Drivers/FreeRTOS/portable/GCC/ARM_CM4F/portmacro.h" 1
 1563 000c EFF31182 			mrs r2, basepri											
 1564 0010 4FF05003 		mov r3, #80												
 1565 0014 83F31188 		msr basepri, r3											
 1566 0018 BFF36F8F 		isb														
 1567 001c BFF34F8F 		dsb														
 1568              	
 1569              	@ 0 "" 2
 1570              		.thumb
 1571              		.syntax unified
 1572 0020 3A61     		str	r2, [r7, #16]
 1573 0022 FB60     		str	r3, [r7, #12]
 215:Drivers/FreeRTOS/portable/GCC/ARM_CM4F/portmacro.h ****         (
 216:Drivers/FreeRTOS/portable/GCC/ARM_CM4F/portmacro.h ****             "	mrs %0, basepri											\n"\
 217:Drivers/FreeRTOS/portable/GCC/ARM_CM4F/portmacro.h ****             "	mov %1, %2												\n"\
 218:Drivers/FreeRTOS/portable/GCC/ARM_CM4F/portmacro.h ****             "	msr basepri, %1											\n"\
 219:Drivers/FreeRTOS/portable/GCC/ARM_CM4F/portmacro.h ****             "	isb														\n"\
 220:Drivers/FreeRTOS/portable/GCC/ARM_CM4F/portmacro.h ****             "	dsb														\n"\
 221:Drivers/FreeRTOS/portable/GCC/ARM_CM4F/portmacro.h ****             : "=r" ( ulOriginalBASEPRI ), "=r" ( ulNewBASEPRI ) : "i" ( configMAX_SYSCALL_INTERRUPT
 222:Drivers/FreeRTOS/portable/GCC/ARM_CM4F/portmacro.h ****         );
 223:Drivers/FreeRTOS/portable/GCC/ARM_CM4F/portmacro.h **** 
 224:Drivers/FreeRTOS/portable/GCC/ARM_CM4F/portmacro.h ****         /* This return will not be reached but is necessary to prevent compiler
 225:Drivers/FreeRTOS/portable/GCC/ARM_CM4F/portmacro.h ****          * warnings. */
 226:Drivers/FreeRTOS/portable/GCC/ARM_CM4F/portmacro.h ****         return ulOriginalBASEPRI;
 1574              		.loc 2 226 16
 1575 0024 3B69     		ldr	r3, [r7, #16]
ARM GAS  C:\Users\Benson\AppData\Local\Temp\ccSM8CXv.s 			page 59


 1576              	.LBE176:
 1577              	.LBE175:
1532:./Drivers/FreeRTOS/tasks.c **** 
1533:./Drivers/FreeRTOS/tasks.c ****         uxSavedInterruptState = portSET_INTERRUPT_MASK_FROM_ISR();
 1578              		.loc 1 1533 33
 1579 0026 FB61     		str	r3, [r7, #28]
1534:./Drivers/FreeRTOS/tasks.c ****         {
1535:./Drivers/FreeRTOS/tasks.c ****             /* If null is passed in here then it is the priority of the calling
1536:./Drivers/FreeRTOS/tasks.c ****              * task that is being queried. */
1537:./Drivers/FreeRTOS/tasks.c ****             pxTCB = prvGetTCBFromHandle( xTask );
 1580              		.loc 1 1537 21
 1581 0028 7B68     		ldr	r3, [r7, #4]
 1582 002a 002B     		cmp	r3, #0
 1583 002c 02D1     		bne	.L93
 1584              		.loc 1 1537 21 is_stmt 0 discriminator 1
 1585 002e 094B     		ldr	r3, .L96
 1586 0030 1B68     		ldr	r3, [r3]
 1587 0032 00E0     		b	.L94
 1588              	.L93:
 1589              		.loc 1 1537 21 discriminator 2
 1590 0034 7B68     		ldr	r3, [r7, #4]
 1591              	.L94:
 1592              		.loc 1 1537 19 is_stmt 1 discriminator 4
 1593 0036 BB61     		str	r3, [r7, #24]
1538:./Drivers/FreeRTOS/tasks.c ****             uxReturn = pxTCB->uxPriority;
 1594              		.loc 1 1538 22 discriminator 4
 1595 0038 BB69     		ldr	r3, [r7, #24]
 1596 003a DB6A     		ldr	r3, [r3, #44]
 1597 003c 7B61     		str	r3, [r7, #20]
 1598 003e FB69     		ldr	r3, [r7, #28]
 1599 0040 BB60     		str	r3, [r7, #8]
 1600              	.LBB177:
 1601              	.LBB178:
 227:Drivers/FreeRTOS/portable/GCC/ARM_CM4F/portmacro.h ****     }
 228:Drivers/FreeRTOS/portable/GCC/ARM_CM4F/portmacro.h **** /*-----------------------------------------------------------*/
 229:Drivers/FreeRTOS/portable/GCC/ARM_CM4F/portmacro.h **** 
 230:Drivers/FreeRTOS/portable/GCC/ARM_CM4F/portmacro.h ****     portFORCE_INLINE static void vPortSetBASEPRI( uint32_t ulNewMaskValue )
 231:Drivers/FreeRTOS/portable/GCC/ARM_CM4F/portmacro.h ****     {
 232:Drivers/FreeRTOS/portable/GCC/ARM_CM4F/portmacro.h ****         __asm volatile
 1602              		.loc 2 232 9 discriminator 4
 1603 0042 BB68     		ldr	r3, [r7, #8]
 1604              		.syntax unified
 1605              	@ 232 "Drivers/FreeRTOS/portable/GCC/ARM_CM4F/portmacro.h" 1
 1606 0044 83F31188 			msr basepri, r3	
 1607              	@ 0 "" 2
 233:Drivers/FreeRTOS/portable/GCC/ARM_CM4F/portmacro.h ****         (
 234:Drivers/FreeRTOS/portable/GCC/ARM_CM4F/portmacro.h ****             "	msr basepri, %0	"::"r" ( ulNewMaskValue ) : "memory"
 235:Drivers/FreeRTOS/portable/GCC/ARM_CM4F/portmacro.h ****         );
 236:Drivers/FreeRTOS/portable/GCC/ARM_CM4F/portmacro.h ****     }
 1608              		.loc 2 236 5 discriminator 4
 1609              		.thumb
 1610              		.syntax unified
 1611 0048 00BF     		nop
 1612              	.LBE178:
 1613              	.LBE177:
1539:./Drivers/FreeRTOS/tasks.c ****         }
1540:./Drivers/FreeRTOS/tasks.c ****         portCLEAR_INTERRUPT_MASK_FROM_ISR( uxSavedInterruptState );
ARM GAS  C:\Users\Benson\AppData\Local\Temp\ccSM8CXv.s 			page 60


1541:./Drivers/FreeRTOS/tasks.c **** 
1542:./Drivers/FreeRTOS/tasks.c ****         return uxReturn;
 1614              		.loc 1 1542 16 discriminator 4
 1615 004a 7B69     		ldr	r3, [r7, #20]
1543:./Drivers/FreeRTOS/tasks.c ****     }
 1616              		.loc 1 1543 5 discriminator 4
 1617 004c 1846     		mov	r0, r3
 1618 004e 2037     		adds	r7, r7, #32
 1619              	.LCFI43:
 1620              		.cfi_def_cfa_offset 8
 1621 0050 BD46     		mov	sp, r7
 1622              	.LCFI44:
 1623              		.cfi_def_cfa_register 13
 1624              		@ sp needed
 1625 0052 80BD     		pop	{r7, pc}
 1626              	.L97:
 1627              		.align	2
 1628              	.L96:
 1629 0054 00000000 		.word	pxCurrentTCB
 1630              		.cfi_endproc
 1631              	.LFE13:
 1633              		.section	.text.vTaskPrioritySet,"ax",%progbits
 1634              		.align	1
 1635              		.global	vTaskPrioritySet
 1636              		.syntax unified
 1637              		.thumb
 1638              		.thumb_func
 1639              		.fpu fpv4-sp-d16
 1641              	vTaskPrioritySet:
 1642              	.LFB14:
1544:./Drivers/FreeRTOS/tasks.c **** 
1545:./Drivers/FreeRTOS/tasks.c **** #endif /* INCLUDE_uxTaskPriorityGet */
1546:./Drivers/FreeRTOS/tasks.c **** /*-----------------------------------------------------------*/
1547:./Drivers/FreeRTOS/tasks.c **** 
1548:./Drivers/FreeRTOS/tasks.c **** #if ( INCLUDE_vTaskPrioritySet == 1 )
1549:./Drivers/FreeRTOS/tasks.c **** 
1550:./Drivers/FreeRTOS/tasks.c ****     void vTaskPrioritySet( TaskHandle_t xTask,
1551:./Drivers/FreeRTOS/tasks.c ****                            UBaseType_t uxNewPriority )
1552:./Drivers/FreeRTOS/tasks.c ****     {
 1643              		.loc 1 1552 5
 1644              		.cfi_startproc
 1645              		@ args = 0, pretend = 0, frame = 32
 1646              		@ frame_needed = 1, uses_anonymous_args = 0
 1647 0000 80B5     		push	{r7, lr}
 1648              	.LCFI45:
 1649              		.cfi_def_cfa_offset 8
 1650              		.cfi_offset 7, -8
 1651              		.cfi_offset 14, -4
 1652 0002 88B0     		sub	sp, sp, #32
 1653              	.LCFI46:
 1654              		.cfi_def_cfa_offset 40
 1655 0004 00AF     		add	r7, sp, #0
 1656              	.LCFI47:
 1657              		.cfi_def_cfa_register 7
 1658 0006 7860     		str	r0, [r7, #4]
 1659 0008 3960     		str	r1, [r7]
1553:./Drivers/FreeRTOS/tasks.c ****         TCB_t * pxTCB;
ARM GAS  C:\Users\Benson\AppData\Local\Temp\ccSM8CXv.s 			page 61


1554:./Drivers/FreeRTOS/tasks.c ****         UBaseType_t uxCurrentBasePriority, uxPriorityUsedOnEntry;
1555:./Drivers/FreeRTOS/tasks.c ****         BaseType_t xYieldRequired = pdFALSE;
 1660              		.loc 1 1555 20
 1661 000a 0023     		movs	r3, #0
 1662 000c FB61     		str	r3, [r7, #28]
1556:./Drivers/FreeRTOS/tasks.c **** 
1557:./Drivers/FreeRTOS/tasks.c ****         configASSERT( uxNewPriority < configMAX_PRIORITIES );
 1663              		.loc 1 1557 9
 1664 000e 3B68     		ldr	r3, [r7]
 1665 0010 042B     		cmp	r3, #4
 1666 0012 0AD9     		bls	.L99
 1667              	.LBB179:
 1668              	.LBB180:
 198:Drivers/FreeRTOS/portable/GCC/ARM_CM4F/portmacro.h ****         (
 1669              		.loc 2 198 9
 1670              		.syntax unified
 1671              	@ 198 "Drivers/FreeRTOS/portable/GCC/ARM_CM4F/portmacro.h" 1
 1672 0014 4FF05003 			mov r3, #80												
 1673 0018 83F31188 		msr basepri, r3											
 1674 001c BFF36F8F 		isb														
 1675 0020 BFF34F8F 		dsb														
 1676              	
 1677              	@ 0 "" 2
 1678              		.thumb
 1679              		.syntax unified
 1680 0024 BB60     		str	r3, [r7, #8]
 206:Drivers/FreeRTOS/portable/GCC/ARM_CM4F/portmacro.h **** 
 1681              		.loc 2 206 5
 1682 0026 00BF     		nop
 1683              	.L100:
 1684              	.LBE180:
 1685              	.LBE179:
 1686              		.loc 1 1557 9 discriminator 1
 1687 0028 FEE7     		b	.L100
 1688              	.L99:
1558:./Drivers/FreeRTOS/tasks.c **** 
1559:./Drivers/FreeRTOS/tasks.c ****         /* Ensure the new priority is valid. */
1560:./Drivers/FreeRTOS/tasks.c ****         if( uxNewPriority >= ( UBaseType_t ) configMAX_PRIORITIES )
 1689              		.loc 1 1560 11
 1690 002a 3B68     		ldr	r3, [r7]
 1691 002c 042B     		cmp	r3, #4
 1692 002e 01D9     		bls	.L101
1561:./Drivers/FreeRTOS/tasks.c ****         {
1562:./Drivers/FreeRTOS/tasks.c ****             uxNewPriority = ( UBaseType_t ) configMAX_PRIORITIES - ( UBaseType_t ) 1U;
 1693              		.loc 1 1562 27
 1694 0030 0423     		movs	r3, #4
 1695 0032 3B60     		str	r3, [r7]
 1696              	.L101:
1563:./Drivers/FreeRTOS/tasks.c ****         }
1564:./Drivers/FreeRTOS/tasks.c ****         else
1565:./Drivers/FreeRTOS/tasks.c ****         {
1566:./Drivers/FreeRTOS/tasks.c ****             mtCOVERAGE_TEST_MARKER();
1567:./Drivers/FreeRTOS/tasks.c ****         }
1568:./Drivers/FreeRTOS/tasks.c **** 
1569:./Drivers/FreeRTOS/tasks.c ****         taskENTER_CRITICAL();
 1697              		.loc 1 1569 9
 1698 0034 FFF7FEFF 		bl	vPortEnterCritical
ARM GAS  C:\Users\Benson\AppData\Local\Temp\ccSM8CXv.s 			page 62


1570:./Drivers/FreeRTOS/tasks.c ****         {
1571:./Drivers/FreeRTOS/tasks.c ****             /* If null is passed in here then it is the priority of the calling
1572:./Drivers/FreeRTOS/tasks.c ****              * task that is being changed. */
1573:./Drivers/FreeRTOS/tasks.c ****             pxTCB = prvGetTCBFromHandle( xTask );
 1699              		.loc 1 1573 21
 1700 0038 7B68     		ldr	r3, [r7, #4]
 1701 003a 002B     		cmp	r3, #0
 1702 003c 02D1     		bne	.L102
 1703              		.loc 1 1573 21 is_stmt 0 discriminator 1
 1704 003e 554B     		ldr	r3, .L111
 1705 0040 1B68     		ldr	r3, [r3]
 1706 0042 00E0     		b	.L103
 1707              	.L102:
 1708              		.loc 1 1573 21 discriminator 2
 1709 0044 7B68     		ldr	r3, [r7, #4]
 1710              	.L103:
 1711              		.loc 1 1573 19 is_stmt 1 discriminator 4
 1712 0046 BB61     		str	r3, [r7, #24]
1574:./Drivers/FreeRTOS/tasks.c **** 
1575:./Drivers/FreeRTOS/tasks.c ****             traceTASK_PRIORITY_SET( pxTCB, uxNewPriority );
1576:./Drivers/FreeRTOS/tasks.c **** 
1577:./Drivers/FreeRTOS/tasks.c ****             #if ( configUSE_MUTEXES == 1 )
1578:./Drivers/FreeRTOS/tasks.c ****                 {
1579:./Drivers/FreeRTOS/tasks.c ****                     uxCurrentBasePriority = pxTCB->uxBasePriority;
 1713              		.loc 1 1579 43 discriminator 4
 1714 0048 BB69     		ldr	r3, [r7, #24]
 1715 004a 9B6C     		ldr	r3, [r3, #72]
 1716 004c 7B61     		str	r3, [r7, #20]
1580:./Drivers/FreeRTOS/tasks.c ****                 }
1581:./Drivers/FreeRTOS/tasks.c ****             #else
1582:./Drivers/FreeRTOS/tasks.c ****                 {
1583:./Drivers/FreeRTOS/tasks.c ****                     uxCurrentBasePriority = pxTCB->uxPriority;
1584:./Drivers/FreeRTOS/tasks.c ****                 }
1585:./Drivers/FreeRTOS/tasks.c ****             #endif
1586:./Drivers/FreeRTOS/tasks.c **** 
1587:./Drivers/FreeRTOS/tasks.c ****             if( uxCurrentBasePriority != uxNewPriority )
 1717              		.loc 1 1587 15 discriminator 4
 1718 004e 7A69     		ldr	r2, [r7, #20]
 1719 0050 3B68     		ldr	r3, [r7]
 1720 0052 9A42     		cmp	r2, r3
 1721 0054 00F09880 		beq	.L104
1588:./Drivers/FreeRTOS/tasks.c ****             {
1589:./Drivers/FreeRTOS/tasks.c ****                 /* The priority change may have readied a task of higher
1590:./Drivers/FreeRTOS/tasks.c ****                  * priority than the calling task. */
1591:./Drivers/FreeRTOS/tasks.c ****                 if( uxNewPriority > uxCurrentBasePriority )
 1722              		.loc 1 1591 19
 1723 0058 3A68     		ldr	r2, [r7]
 1724 005a 7B69     		ldr	r3, [r7, #20]
 1725 005c 9A42     		cmp	r2, r3
 1726 005e 0DD9     		bls	.L105
1592:./Drivers/FreeRTOS/tasks.c ****                 {
1593:./Drivers/FreeRTOS/tasks.c ****                     if( pxTCB != pxCurrentTCB )
 1727              		.loc 1 1593 31
 1728 0060 4C4B     		ldr	r3, .L111
 1729 0062 1B68     		ldr	r3, [r3]
 1730              		.loc 1 1593 23
 1731 0064 BA69     		ldr	r2, [r7, #24]
ARM GAS  C:\Users\Benson\AppData\Local\Temp\ccSM8CXv.s 			page 63


 1732 0066 9A42     		cmp	r2, r3
 1733 0068 0FD0     		beq	.L106
1594:./Drivers/FreeRTOS/tasks.c ****                     {
1595:./Drivers/FreeRTOS/tasks.c ****                         /* The priority of a task other than the currently
1596:./Drivers/FreeRTOS/tasks.c ****                          * running task is being raised.  Is the priority being
1597:./Drivers/FreeRTOS/tasks.c ****                          * raised above that of the running task? */
1598:./Drivers/FreeRTOS/tasks.c ****                         if( uxNewPriority >= pxCurrentTCB->uxPriority )
 1734              		.loc 1 1598 58
 1735 006a 4A4B     		ldr	r3, .L111
 1736 006c 1B68     		ldr	r3, [r3]
 1737 006e DB6A     		ldr	r3, [r3, #44]
 1738              		.loc 1 1598 27
 1739 0070 3A68     		ldr	r2, [r7]
 1740 0072 9A42     		cmp	r2, r3
 1741 0074 09D3     		bcc	.L106
1599:./Drivers/FreeRTOS/tasks.c ****                         {
1600:./Drivers/FreeRTOS/tasks.c ****                             xYieldRequired = pdTRUE;
 1742              		.loc 1 1600 44
 1743 0076 0123     		movs	r3, #1
 1744 0078 FB61     		str	r3, [r7, #28]
 1745 007a 06E0     		b	.L106
 1746              	.L105:
1601:./Drivers/FreeRTOS/tasks.c ****                         }
1602:./Drivers/FreeRTOS/tasks.c ****                         else
1603:./Drivers/FreeRTOS/tasks.c ****                         {
1604:./Drivers/FreeRTOS/tasks.c ****                             mtCOVERAGE_TEST_MARKER();
1605:./Drivers/FreeRTOS/tasks.c ****                         }
1606:./Drivers/FreeRTOS/tasks.c ****                     }
1607:./Drivers/FreeRTOS/tasks.c ****                     else
1608:./Drivers/FreeRTOS/tasks.c ****                     {
1609:./Drivers/FreeRTOS/tasks.c ****                         /* The priority of the running task is being raised,
1610:./Drivers/FreeRTOS/tasks.c ****                          * but the running task must already be the highest
1611:./Drivers/FreeRTOS/tasks.c ****                          * priority task able to run so no yield is required. */
1612:./Drivers/FreeRTOS/tasks.c ****                     }
1613:./Drivers/FreeRTOS/tasks.c ****                 }
1614:./Drivers/FreeRTOS/tasks.c ****                 else if( pxTCB == pxCurrentTCB )
 1747              		.loc 1 1614 32
 1748 007c 454B     		ldr	r3, .L111
 1749 007e 1B68     		ldr	r3, [r3]
 1750              		.loc 1 1614 24
 1751 0080 BA69     		ldr	r2, [r7, #24]
 1752 0082 9A42     		cmp	r2, r3
 1753 0084 01D1     		bne	.L106
1615:./Drivers/FreeRTOS/tasks.c ****                 {
1616:./Drivers/FreeRTOS/tasks.c ****                     /* Setting the priority of the running task down means
1617:./Drivers/FreeRTOS/tasks.c ****                      * there may now be another task of higher priority that
1618:./Drivers/FreeRTOS/tasks.c ****                      * is ready to execute. */
1619:./Drivers/FreeRTOS/tasks.c ****                     xYieldRequired = pdTRUE;
 1754              		.loc 1 1619 36
 1755 0086 0123     		movs	r3, #1
 1756 0088 FB61     		str	r3, [r7, #28]
 1757              	.L106:
1620:./Drivers/FreeRTOS/tasks.c ****                 }
1621:./Drivers/FreeRTOS/tasks.c ****                 else
1622:./Drivers/FreeRTOS/tasks.c ****                 {
1623:./Drivers/FreeRTOS/tasks.c ****                     /* Setting the priority of any other task down does not
1624:./Drivers/FreeRTOS/tasks.c ****                      * require a yield as the running task must be above the
ARM GAS  C:\Users\Benson\AppData\Local\Temp\ccSM8CXv.s 			page 64


1625:./Drivers/FreeRTOS/tasks.c ****                      * new priority of the task being modified. */
1626:./Drivers/FreeRTOS/tasks.c ****                 }
1627:./Drivers/FreeRTOS/tasks.c **** 
1628:./Drivers/FreeRTOS/tasks.c ****                 /* Remember the ready list the task might be referenced from
1629:./Drivers/FreeRTOS/tasks.c ****                  * before its uxPriority member is changed so the
1630:./Drivers/FreeRTOS/tasks.c ****                  * taskRESET_READY_PRIORITY() macro can function correctly. */
1631:./Drivers/FreeRTOS/tasks.c ****                 uxPriorityUsedOnEntry = pxTCB->uxPriority;
 1758              		.loc 1 1631 39
 1759 008a BB69     		ldr	r3, [r7, #24]
 1760 008c DB6A     		ldr	r3, [r3, #44]
 1761 008e 3B61     		str	r3, [r7, #16]
1632:./Drivers/FreeRTOS/tasks.c **** 
1633:./Drivers/FreeRTOS/tasks.c ****                 #if ( configUSE_MUTEXES == 1 )
1634:./Drivers/FreeRTOS/tasks.c ****                     {
1635:./Drivers/FreeRTOS/tasks.c ****                         /* Only change the priority being used if the task is not
1636:./Drivers/FreeRTOS/tasks.c ****                          * currently using an inherited priority. */
1637:./Drivers/FreeRTOS/tasks.c ****                         if( pxTCB->uxBasePriority == pxTCB->uxPriority )
 1762              		.loc 1 1637 34
 1763 0090 BB69     		ldr	r3, [r7, #24]
 1764 0092 9A6C     		ldr	r2, [r3, #72]
 1765              		.loc 1 1637 59
 1766 0094 BB69     		ldr	r3, [r7, #24]
 1767 0096 DB6A     		ldr	r3, [r3, #44]
 1768              		.loc 1 1637 27
 1769 0098 9A42     		cmp	r2, r3
 1770 009a 02D1     		bne	.L107
1638:./Drivers/FreeRTOS/tasks.c ****                         {
1639:./Drivers/FreeRTOS/tasks.c ****                             pxTCB->uxPriority = uxNewPriority;
 1771              		.loc 1 1639 47
 1772 009c BB69     		ldr	r3, [r7, #24]
 1773 009e 3A68     		ldr	r2, [r7]
 1774 00a0 DA62     		str	r2, [r3, #44]
 1775              	.L107:
1640:./Drivers/FreeRTOS/tasks.c ****                         }
1641:./Drivers/FreeRTOS/tasks.c ****                         else
1642:./Drivers/FreeRTOS/tasks.c ****                         {
1643:./Drivers/FreeRTOS/tasks.c ****                             mtCOVERAGE_TEST_MARKER();
1644:./Drivers/FreeRTOS/tasks.c ****                         }
1645:./Drivers/FreeRTOS/tasks.c **** 
1646:./Drivers/FreeRTOS/tasks.c ****                         /* The base priority gets set whatever. */
1647:./Drivers/FreeRTOS/tasks.c ****                         pxTCB->uxBasePriority = uxNewPriority;
 1776              		.loc 1 1647 47
 1777 00a2 BB69     		ldr	r3, [r7, #24]
 1778 00a4 3A68     		ldr	r2, [r7]
 1779 00a6 9A64     		str	r2, [r3, #72]
1648:./Drivers/FreeRTOS/tasks.c ****                     }
1649:./Drivers/FreeRTOS/tasks.c ****                 #else /* if ( configUSE_MUTEXES == 1 ) */
1650:./Drivers/FreeRTOS/tasks.c ****                     {
1651:./Drivers/FreeRTOS/tasks.c ****                         pxTCB->uxPriority = uxNewPriority;
1652:./Drivers/FreeRTOS/tasks.c ****                     }
1653:./Drivers/FreeRTOS/tasks.c ****                 #endif /* if ( configUSE_MUTEXES == 1 ) */
1654:./Drivers/FreeRTOS/tasks.c **** 
1655:./Drivers/FreeRTOS/tasks.c ****                 /* Only reset the event list item value if the value is not
1656:./Drivers/FreeRTOS/tasks.c ****                  * being used for anything else. */
1657:./Drivers/FreeRTOS/tasks.c ****                 if( ( listGET_LIST_ITEM_VALUE( &( pxTCB->xEventListItem ) ) & taskEVENT_LIST_ITEM_V
 1780              		.loc 1 1657 23
 1781 00a8 BB69     		ldr	r3, [r7, #24]
ARM GAS  C:\Users\Benson\AppData\Local\Temp\ccSM8CXv.s 			page 65


 1782 00aa 9B69     		ldr	r3, [r3, #24]
 1783              		.loc 1 1657 19
 1784 00ac 002B     		cmp	r3, #0
 1785 00ae 04DB     		blt	.L108
1658:./Drivers/FreeRTOS/tasks.c ****                 {
1659:./Drivers/FreeRTOS/tasks.c ****                     listSET_LIST_ITEM_VALUE( &( pxTCB->xEventListItem ), ( ( TickType_t ) configMAX
 1786              		.loc 1 1659 21
 1787 00b0 3B68     		ldr	r3, [r7]
 1788 00b2 C3F10502 		rsb	r2, r3, #5
 1789 00b6 BB69     		ldr	r3, [r7, #24]
 1790 00b8 9A61     		str	r2, [r3, #24]
 1791              	.L108:
1660:./Drivers/FreeRTOS/tasks.c ****                 }
1661:./Drivers/FreeRTOS/tasks.c ****                 else
1662:./Drivers/FreeRTOS/tasks.c ****                 {
1663:./Drivers/FreeRTOS/tasks.c ****                     mtCOVERAGE_TEST_MARKER();
1664:./Drivers/FreeRTOS/tasks.c ****                 }
1665:./Drivers/FreeRTOS/tasks.c **** 
1666:./Drivers/FreeRTOS/tasks.c ****                 /* If the task is in the blocked or suspended list we need do
1667:./Drivers/FreeRTOS/tasks.c ****                  * nothing more than change its priority variable. However, if
1668:./Drivers/FreeRTOS/tasks.c ****                  * the task is in a ready list it needs to be removed and placed
1669:./Drivers/FreeRTOS/tasks.c ****                  * in the list appropriate to its new priority. */
1670:./Drivers/FreeRTOS/tasks.c ****                 if( listIS_CONTAINED_WITHIN( &( pxReadyTasksLists[ uxPriorityUsedOnEntry ] ), &( px
 1792              		.loc 1 1670 21
 1793 00ba BB69     		ldr	r3, [r7, #24]
 1794 00bc 5969     		ldr	r1, [r3, #20]
 1795 00be 3A69     		ldr	r2, [r7, #16]
 1796 00c0 1346     		mov	r3, r2
 1797 00c2 9B00     		lsls	r3, r3, #2
 1798 00c4 1344     		add	r3, r3, r2
 1799 00c6 9B00     		lsls	r3, r3, #2
 1800 00c8 334A     		ldr	r2, .L111+4
 1801 00ca 1344     		add	r3, r3, r2
 1802              		.loc 1 1670 19
 1803 00cc 9942     		cmp	r1, r3
 1804 00ce 50D1     		bne	.L109
1671:./Drivers/FreeRTOS/tasks.c ****                 {
1672:./Drivers/FreeRTOS/tasks.c ****                     /* The task is currently in its ready list - remove before
1673:./Drivers/FreeRTOS/tasks.c ****                      * adding it to its new ready list.  As we are in a critical
1674:./Drivers/FreeRTOS/tasks.c ****                      * section we can do this even if the scheduler is suspended. */
1675:./Drivers/FreeRTOS/tasks.c ****                     if( uxListRemove( &( pxTCB->xStateListItem ) ) == ( UBaseType_t ) 0 )
 1805              		.loc 1 1675 25
 1806 00d0 BB69     		ldr	r3, [r7, #24]
 1807 00d2 0433     		adds	r3, r3, #4
 1808 00d4 1846     		mov	r0, r3
 1809 00d6 FFF7FEFF 		bl	uxListRemove
 1810 00da 0346     		mov	r3, r0
 1811              		.loc 1 1675 23
 1812 00dc 002B     		cmp	r3, #0
 1813 00de 09D1     		bne	.L110
1676:./Drivers/FreeRTOS/tasks.c ****                     {
1677:./Drivers/FreeRTOS/tasks.c ****                         /* It is known that the task is in its ready list so
1678:./Drivers/FreeRTOS/tasks.c ****                          * there is no need to check again and the port level
1679:./Drivers/FreeRTOS/tasks.c ****                          * reset macro can be called directly. */
1680:./Drivers/FreeRTOS/tasks.c ****                         portRESET_READY_PRIORITY( uxPriorityUsedOnEntry, uxTopReadyPriority );
 1814              		.loc 1 1680 25
 1815 00e0 0122     		movs	r2, #1
ARM GAS  C:\Users\Benson\AppData\Local\Temp\ccSM8CXv.s 			page 66


 1816 00e2 3B69     		ldr	r3, [r7, #16]
 1817 00e4 02FA03F3 		lsl	r3, r2, r3
 1818 00e8 DA43     		mvns	r2, r3
 1819 00ea 2C4B     		ldr	r3, .L111+8
 1820 00ec 1B68     		ldr	r3, [r3]
 1821 00ee 1340     		ands	r3, r3, r2
 1822 00f0 2A4A     		ldr	r2, .L111+8
 1823 00f2 1360     		str	r3, [r2]
 1824              	.L110:
1681:./Drivers/FreeRTOS/tasks.c ****                     }
1682:./Drivers/FreeRTOS/tasks.c ****                     else
1683:./Drivers/FreeRTOS/tasks.c ****                     {
1684:./Drivers/FreeRTOS/tasks.c ****                         mtCOVERAGE_TEST_MARKER();
1685:./Drivers/FreeRTOS/tasks.c ****                     }
1686:./Drivers/FreeRTOS/tasks.c **** 
1687:./Drivers/FreeRTOS/tasks.c ****                     prvAddTaskToReadyList( pxTCB );
 1825              		.loc 1 1687 21
 1826 00f4 BB69     		ldr	r3, [r7, #24]
 1827 00f6 DB6A     		ldr	r3, [r3, #44]
 1828 00f8 0122     		movs	r2, #1
 1829 00fa 9A40     		lsls	r2, r2, r3
 1830 00fc 274B     		ldr	r3, .L111+8
 1831 00fe 1B68     		ldr	r3, [r3]
 1832 0100 1343     		orrs	r3, r3, r2
 1833 0102 264A     		ldr	r2, .L111+8
 1834 0104 1360     		str	r3, [r2]
 1835              	.LBB181:
 1836 0106 BB69     		ldr	r3, [r7, #24]
 1837 0108 DA6A     		ldr	r2, [r3, #44]
 1838 010a 2349     		ldr	r1, .L111+4
 1839 010c 1346     		mov	r3, r2
 1840 010e 9B00     		lsls	r3, r3, #2
 1841 0110 1344     		add	r3, r3, r2
 1842 0112 9B00     		lsls	r3, r3, #2
 1843 0114 0B44     		add	r3, r3, r1
 1844 0116 0433     		adds	r3, r3, #4
 1845 0118 1B68     		ldr	r3, [r3]
 1846 011a FB60     		str	r3, [r7, #12]
 1847 011c BB69     		ldr	r3, [r7, #24]
 1848 011e FA68     		ldr	r2, [r7, #12]
 1849 0120 9A60     		str	r2, [r3, #8]
 1850 0122 FB68     		ldr	r3, [r7, #12]
 1851 0124 9A68     		ldr	r2, [r3, #8]
 1852 0126 BB69     		ldr	r3, [r7, #24]
 1853 0128 DA60     		str	r2, [r3, #12]
 1854 012a FB68     		ldr	r3, [r7, #12]
 1855 012c 9B68     		ldr	r3, [r3, #8]
 1856 012e BA69     		ldr	r2, [r7, #24]
 1857 0130 0432     		adds	r2, r2, #4
 1858 0132 5A60     		str	r2, [r3, #4]
 1859 0134 BB69     		ldr	r3, [r7, #24]
 1860 0136 1A1D     		adds	r2, r3, #4
 1861 0138 FB68     		ldr	r3, [r7, #12]
 1862 013a 9A60     		str	r2, [r3, #8]
 1863 013c BB69     		ldr	r3, [r7, #24]
 1864 013e DA6A     		ldr	r2, [r3, #44]
 1865 0140 1346     		mov	r3, r2
ARM GAS  C:\Users\Benson\AppData\Local\Temp\ccSM8CXv.s 			page 67


 1866 0142 9B00     		lsls	r3, r3, #2
 1867 0144 1344     		add	r3, r3, r2
 1868 0146 9B00     		lsls	r3, r3, #2
 1869 0148 134A     		ldr	r2, .L111+4
 1870 014a 1A44     		add	r2, r2, r3
 1871 014c BB69     		ldr	r3, [r7, #24]
 1872 014e 5A61     		str	r2, [r3, #20]
 1873 0150 BB69     		ldr	r3, [r7, #24]
 1874 0152 DA6A     		ldr	r2, [r3, #44]
 1875 0154 1049     		ldr	r1, .L111+4
 1876 0156 1346     		mov	r3, r2
 1877 0158 9B00     		lsls	r3, r3, #2
 1878 015a 1344     		add	r3, r3, r2
 1879 015c 9B00     		lsls	r3, r3, #2
 1880 015e 0B44     		add	r3, r3, r1
 1881 0160 1B68     		ldr	r3, [r3]
 1882 0162 591C     		adds	r1, r3, #1
 1883 0164 0C48     		ldr	r0, .L111+4
 1884 0166 1346     		mov	r3, r2
 1885 0168 9B00     		lsls	r3, r3, #2
 1886 016a 1344     		add	r3, r3, r2
 1887 016c 9B00     		lsls	r3, r3, #2
 1888 016e 0344     		add	r3, r3, r0
 1889 0170 1960     		str	r1, [r3]
 1890              	.L109:
 1891              	.LBE181:
1688:./Drivers/FreeRTOS/tasks.c ****                 }
1689:./Drivers/FreeRTOS/tasks.c ****                 else
1690:./Drivers/FreeRTOS/tasks.c ****                 {
1691:./Drivers/FreeRTOS/tasks.c ****                     mtCOVERAGE_TEST_MARKER();
1692:./Drivers/FreeRTOS/tasks.c ****                 }
1693:./Drivers/FreeRTOS/tasks.c **** 
1694:./Drivers/FreeRTOS/tasks.c ****                 if( xYieldRequired != pdFALSE )
 1892              		.loc 1 1694 19
 1893 0172 FB69     		ldr	r3, [r7, #28]
 1894 0174 002B     		cmp	r3, #0
 1895 0176 07D0     		beq	.L104
1695:./Drivers/FreeRTOS/tasks.c ****                 {
1696:./Drivers/FreeRTOS/tasks.c ****                     taskYIELD_IF_USING_PREEMPTION();
 1896              		.loc 1 1696 21
 1897 0178 094B     		ldr	r3, .L111+12
 1898 017a 4FF08052 		mov	r2, #268435456
 1899 017e 1A60     		str	r2, [r3]
 1900              		.syntax unified
 1901              	@ 1696 "./Drivers/FreeRTOS/tasks.c" 1
 1902 0180 BFF34F8F 		dsb
 1903              	@ 0 "" 2
 1904              	@ 1696 "./Drivers/FreeRTOS/tasks.c" 1
 1905 0184 BFF36F8F 		isb
 1906              	@ 0 "" 2
 1907              		.thumb
 1908              		.syntax unified
 1909              	.L104:
1697:./Drivers/FreeRTOS/tasks.c ****                 }
1698:./Drivers/FreeRTOS/tasks.c ****                 else
1699:./Drivers/FreeRTOS/tasks.c ****                 {
1700:./Drivers/FreeRTOS/tasks.c ****                     mtCOVERAGE_TEST_MARKER();
ARM GAS  C:\Users\Benson\AppData\Local\Temp\ccSM8CXv.s 			page 68


1701:./Drivers/FreeRTOS/tasks.c ****                 }
1702:./Drivers/FreeRTOS/tasks.c **** 
1703:./Drivers/FreeRTOS/tasks.c ****                 /* Remove compiler warning about unused variables when the port
1704:./Drivers/FreeRTOS/tasks.c ****                  * optimised task selection is not being used. */
1705:./Drivers/FreeRTOS/tasks.c ****                 ( void ) uxPriorityUsedOnEntry;
1706:./Drivers/FreeRTOS/tasks.c ****             }
1707:./Drivers/FreeRTOS/tasks.c ****         }
1708:./Drivers/FreeRTOS/tasks.c ****         taskEXIT_CRITICAL();
 1910              		.loc 1 1708 9
 1911 0188 FFF7FEFF 		bl	vPortExitCritical
1709:./Drivers/FreeRTOS/tasks.c ****     }
 1912              		.loc 1 1709 5
 1913 018c 00BF     		nop
 1914 018e 2037     		adds	r7, r7, #32
 1915              	.LCFI48:
 1916              		.cfi_def_cfa_offset 8
 1917 0190 BD46     		mov	sp, r7
 1918              	.LCFI49:
 1919              		.cfi_def_cfa_register 13
 1920              		@ sp needed
 1921 0192 80BD     		pop	{r7, pc}
 1922              	.L112:
 1923              		.align	2
 1924              	.L111:
 1925 0194 00000000 		.word	pxCurrentTCB
 1926 0198 00000000 		.word	pxReadyTasksLists
 1927 019c 00000000 		.word	uxTopReadyPriority
 1928 01a0 04ED00E0 		.word	-536810236
 1929              		.cfi_endproc
 1930              	.LFE14:
 1932              		.section	.text.vTaskSuspend,"ax",%progbits
 1933              		.align	1
 1934              		.global	vTaskSuspend
 1935              		.syntax unified
 1936              		.thumb
 1937              		.thumb_func
 1938              		.fpu fpv4-sp-d16
 1940              	vTaskSuspend:
 1941              	.LFB15:
1710:./Drivers/FreeRTOS/tasks.c **** 
1711:./Drivers/FreeRTOS/tasks.c **** #endif /* INCLUDE_vTaskPrioritySet */
1712:./Drivers/FreeRTOS/tasks.c **** /*-----------------------------------------------------------*/
1713:./Drivers/FreeRTOS/tasks.c **** 
1714:./Drivers/FreeRTOS/tasks.c **** #if ( INCLUDE_vTaskSuspend == 1 )
1715:./Drivers/FreeRTOS/tasks.c **** 
1716:./Drivers/FreeRTOS/tasks.c ****     void vTaskSuspend( TaskHandle_t xTaskToSuspend )
1717:./Drivers/FreeRTOS/tasks.c ****     {
 1942              		.loc 1 1717 5
 1943              		.cfi_startproc
 1944              		@ args = 0, pretend = 0, frame = 24
 1945              		@ frame_needed = 1, uses_anonymous_args = 0
 1946 0000 80B5     		push	{r7, lr}
 1947              	.LCFI50:
 1948              		.cfi_def_cfa_offset 8
 1949              		.cfi_offset 7, -8
 1950              		.cfi_offset 14, -4
 1951 0002 86B0     		sub	sp, sp, #24
ARM GAS  C:\Users\Benson\AppData\Local\Temp\ccSM8CXv.s 			page 69


 1952              	.LCFI51:
 1953              		.cfi_def_cfa_offset 32
 1954 0004 00AF     		add	r7, sp, #0
 1955              	.LCFI52:
 1956              		.cfi_def_cfa_register 7
 1957 0006 7860     		str	r0, [r7, #4]
1718:./Drivers/FreeRTOS/tasks.c ****         TCB_t * pxTCB;
1719:./Drivers/FreeRTOS/tasks.c **** 
1720:./Drivers/FreeRTOS/tasks.c ****         taskENTER_CRITICAL();
 1958              		.loc 1 1720 9
 1959 0008 FFF7FEFF 		bl	vPortEnterCritical
1721:./Drivers/FreeRTOS/tasks.c ****         {
1722:./Drivers/FreeRTOS/tasks.c ****             /* If null is passed in here then it is the running task that is
1723:./Drivers/FreeRTOS/tasks.c ****              * being suspended. */
1724:./Drivers/FreeRTOS/tasks.c ****             pxTCB = prvGetTCBFromHandle( xTaskToSuspend );
 1960              		.loc 1 1724 21
 1961 000c 7B68     		ldr	r3, [r7, #4]
 1962 000e 002B     		cmp	r3, #0
 1963 0010 02D1     		bne	.L114
 1964              		.loc 1 1724 21 is_stmt 0 discriminator 1
 1965 0012 434B     		ldr	r3, .L128
 1966 0014 1B68     		ldr	r3, [r3]
 1967 0016 00E0     		b	.L115
 1968              	.L114:
 1969              		.loc 1 1724 21 discriminator 2
 1970 0018 7B68     		ldr	r3, [r7, #4]
 1971              	.L115:
 1972              		.loc 1 1724 19 is_stmt 1 discriminator 4
 1973 001a 3B61     		str	r3, [r7, #16]
1725:./Drivers/FreeRTOS/tasks.c **** 
1726:./Drivers/FreeRTOS/tasks.c ****             traceTASK_SUSPEND( pxTCB );
1727:./Drivers/FreeRTOS/tasks.c **** 
1728:./Drivers/FreeRTOS/tasks.c ****             /* Remove task from the ready/delayed list and place in the
1729:./Drivers/FreeRTOS/tasks.c ****              * suspended list. */
1730:./Drivers/FreeRTOS/tasks.c ****             if( uxListRemove( &( pxTCB->xStateListItem ) ) == ( UBaseType_t ) 0 )
 1974              		.loc 1 1730 17 discriminator 4
 1975 001c 3B69     		ldr	r3, [r7, #16]
 1976 001e 0433     		adds	r3, r3, #4
 1977 0020 1846     		mov	r0, r3
 1978 0022 FFF7FEFF 		bl	uxListRemove
 1979 0026 0346     		mov	r3, r0
 1980              		.loc 1 1730 15 discriminator 4
 1981 0028 002B     		cmp	r3, #0
 1982 002a 15D1     		bne	.L116
1731:./Drivers/FreeRTOS/tasks.c ****             {
1732:./Drivers/FreeRTOS/tasks.c ****                 taskRESET_READY_PRIORITY( pxTCB->uxPriority );
 1983              		.loc 1 1732 17
 1984 002c 3B69     		ldr	r3, [r7, #16]
 1985 002e DA6A     		ldr	r2, [r3, #44]
 1986 0030 3C49     		ldr	r1, .L128+4
 1987 0032 1346     		mov	r3, r2
 1988 0034 9B00     		lsls	r3, r3, #2
 1989 0036 1344     		add	r3, r3, r2
 1990 0038 9B00     		lsls	r3, r3, #2
 1991 003a 0B44     		add	r3, r3, r1
 1992 003c 1B68     		ldr	r3, [r3]
 1993 003e 002B     		cmp	r3, #0
ARM GAS  C:\Users\Benson\AppData\Local\Temp\ccSM8CXv.s 			page 70


 1994 0040 0AD1     		bne	.L116
 1995              		.loc 1 1732 17 is_stmt 0 discriminator 1
 1996 0042 3B69     		ldr	r3, [r7, #16]
 1997 0044 DB6A     		ldr	r3, [r3, #44]
 1998 0046 0122     		movs	r2, #1
 1999 0048 02FA03F3 		lsl	r3, r2, r3
 2000 004c DA43     		mvns	r2, r3
 2001 004e 364B     		ldr	r3, .L128+8
 2002 0050 1B68     		ldr	r3, [r3]
 2003 0052 1340     		ands	r3, r3, r2
 2004 0054 344A     		ldr	r2, .L128+8
 2005 0056 1360     		str	r3, [r2]
 2006              	.L116:
1733:./Drivers/FreeRTOS/tasks.c ****             }
1734:./Drivers/FreeRTOS/tasks.c ****             else
1735:./Drivers/FreeRTOS/tasks.c ****             {
1736:./Drivers/FreeRTOS/tasks.c ****                 mtCOVERAGE_TEST_MARKER();
1737:./Drivers/FreeRTOS/tasks.c ****             }
1738:./Drivers/FreeRTOS/tasks.c **** 
1739:./Drivers/FreeRTOS/tasks.c ****             /* Is the task waiting on an event also? */
1740:./Drivers/FreeRTOS/tasks.c ****             if( listLIST_ITEM_CONTAINER( &( pxTCB->xEventListItem ) ) != NULL )
 2007              		.loc 1 1740 17 is_stmt 1
 2008 0058 3B69     		ldr	r3, [r7, #16]
 2009 005a 9B6A     		ldr	r3, [r3, #40]
 2010              		.loc 1 1740 15
 2011 005c 002B     		cmp	r3, #0
 2012 005e 04D0     		beq	.L117
1741:./Drivers/FreeRTOS/tasks.c ****             {
1742:./Drivers/FreeRTOS/tasks.c ****                 ( void ) uxListRemove( &( pxTCB->xEventListItem ) );
 2013              		.loc 1 1742 26
 2014 0060 3B69     		ldr	r3, [r7, #16]
 2015 0062 1833     		adds	r3, r3, #24
 2016 0064 1846     		mov	r0, r3
 2017 0066 FFF7FEFF 		bl	uxListRemove
 2018              	.L117:
1743:./Drivers/FreeRTOS/tasks.c ****             }
1744:./Drivers/FreeRTOS/tasks.c ****             else
1745:./Drivers/FreeRTOS/tasks.c ****             {
1746:./Drivers/FreeRTOS/tasks.c ****                 mtCOVERAGE_TEST_MARKER();
1747:./Drivers/FreeRTOS/tasks.c ****             }
1748:./Drivers/FreeRTOS/tasks.c **** 
1749:./Drivers/FreeRTOS/tasks.c ****             vListInsertEnd( &xSuspendedTaskList, &( pxTCB->xStateListItem ) );
 2019              		.loc 1 1749 13
 2020 006a 3B69     		ldr	r3, [r7, #16]
 2021 006c 0433     		adds	r3, r3, #4
 2022 006e 1946     		mov	r1, r3
 2023 0070 2E48     		ldr	r0, .L128+12
 2024 0072 FFF7FEFF 		bl	vListInsertEnd
 2025              	.LBB182:
1750:./Drivers/FreeRTOS/tasks.c **** 
1751:./Drivers/FreeRTOS/tasks.c ****             #if ( configUSE_TASK_NOTIFICATIONS == 1 )
1752:./Drivers/FreeRTOS/tasks.c ****                 {
1753:./Drivers/FreeRTOS/tasks.c ****                     BaseType_t x;
1754:./Drivers/FreeRTOS/tasks.c **** 
1755:./Drivers/FreeRTOS/tasks.c ****                     for( x = 0; x < configTASK_NOTIFICATION_ARRAY_ENTRIES; x++ )
 2026              		.loc 1 1755 28
 2027 0076 0023     		movs	r3, #0
ARM GAS  C:\Users\Benson\AppData\Local\Temp\ccSM8CXv.s 			page 71


 2028 0078 7B61     		str	r3, [r7, #20]
 2029              		.loc 1 1755 21
 2030 007a 10E0     		b	.L118
 2031              	.L120:
1756:./Drivers/FreeRTOS/tasks.c ****                     {
1757:./Drivers/FreeRTOS/tasks.c ****                         if( pxTCB->ucNotifyState[ x ] == taskWAITING_NOTIFICATION )
 2032              		.loc 1 1757 49
 2033 007c 3A69     		ldr	r2, [r7, #16]
 2034 007e 7B69     		ldr	r3, [r7, #20]
 2035 0080 1344     		add	r3, r3, r2
 2036 0082 5433     		adds	r3, r3, #84
 2037 0084 1B78     		ldrb	r3, [r3]
 2038 0086 DBB2     		uxtb	r3, r3
 2039              		.loc 1 1757 27
 2040 0088 012B     		cmp	r3, #1
 2041 008a 05D1     		bne	.L119
1758:./Drivers/FreeRTOS/tasks.c ****                         {
1759:./Drivers/FreeRTOS/tasks.c ****                             /* The task was blocked to wait for a notification, but is
1760:./Drivers/FreeRTOS/tasks.c ****                              * now suspended, so no notification was received. */
1761:./Drivers/FreeRTOS/tasks.c ****                             pxTCB->ucNotifyState[ x ] = taskNOT_WAITING_NOTIFICATION;
 2042              		.loc 1 1761 55
 2043 008c 3A69     		ldr	r2, [r7, #16]
 2044 008e 7B69     		ldr	r3, [r7, #20]
 2045 0090 1344     		add	r3, r3, r2
 2046 0092 5433     		adds	r3, r3, #84
 2047 0094 0022     		movs	r2, #0
 2048 0096 1A70     		strb	r2, [r3]
 2049              	.L119:
1755:./Drivers/FreeRTOS/tasks.c ****                     {
 2050              		.loc 1 1755 77 discriminator 2
 2051 0098 7B69     		ldr	r3, [r7, #20]
 2052 009a 0133     		adds	r3, r3, #1
 2053 009c 7B61     		str	r3, [r7, #20]
 2054              	.L118:
1755:./Drivers/FreeRTOS/tasks.c ****                     {
 2055              		.loc 1 1755 21 discriminator 1
 2056 009e 7B69     		ldr	r3, [r7, #20]
 2057 00a0 002B     		cmp	r3, #0
 2058 00a2 EBDD     		ble	.L120
 2059              	.LBE182:
1762:./Drivers/FreeRTOS/tasks.c ****                         }
1763:./Drivers/FreeRTOS/tasks.c ****                     }
1764:./Drivers/FreeRTOS/tasks.c ****                 }
1765:./Drivers/FreeRTOS/tasks.c ****             #endif /* if ( configUSE_TASK_NOTIFICATIONS == 1 ) */
1766:./Drivers/FreeRTOS/tasks.c ****         }
1767:./Drivers/FreeRTOS/tasks.c ****         taskEXIT_CRITICAL();
 2060              		.loc 1 1767 9
 2061 00a4 FFF7FEFF 		bl	vPortExitCritical
1768:./Drivers/FreeRTOS/tasks.c **** 
1769:./Drivers/FreeRTOS/tasks.c ****         if( xSchedulerRunning != pdFALSE )
 2062              		.loc 1 1769 31
 2063 00a8 214B     		ldr	r3, .L128+16
 2064 00aa 1B68     		ldr	r3, [r3]
 2065              		.loc 1 1769 11
 2066 00ac 002B     		cmp	r3, #0
 2067 00ae 05D0     		beq	.L121
1770:./Drivers/FreeRTOS/tasks.c ****         {
ARM GAS  C:\Users\Benson\AppData\Local\Temp\ccSM8CXv.s 			page 72


1771:./Drivers/FreeRTOS/tasks.c ****             /* Reset the next expected unblock time in case it referred to the
1772:./Drivers/FreeRTOS/tasks.c ****              * task that is now in the Suspended state. */
1773:./Drivers/FreeRTOS/tasks.c ****             taskENTER_CRITICAL();
 2068              		.loc 1 1773 13
 2069 00b0 FFF7FEFF 		bl	vPortEnterCritical
1774:./Drivers/FreeRTOS/tasks.c ****             {
1775:./Drivers/FreeRTOS/tasks.c ****                 prvResetNextTaskUnblockTime();
 2070              		.loc 1 1775 17
 2071 00b4 FFF7FEFF 		bl	prvResetNextTaskUnblockTime
1776:./Drivers/FreeRTOS/tasks.c ****             }
1777:./Drivers/FreeRTOS/tasks.c ****             taskEXIT_CRITICAL();
 2072              		.loc 1 1777 13
 2073 00b8 FFF7FEFF 		bl	vPortExitCritical
 2074              	.L121:
1778:./Drivers/FreeRTOS/tasks.c ****         }
1779:./Drivers/FreeRTOS/tasks.c ****         else
1780:./Drivers/FreeRTOS/tasks.c ****         {
1781:./Drivers/FreeRTOS/tasks.c ****             mtCOVERAGE_TEST_MARKER();
1782:./Drivers/FreeRTOS/tasks.c ****         }
1783:./Drivers/FreeRTOS/tasks.c **** 
1784:./Drivers/FreeRTOS/tasks.c ****         if( pxTCB == pxCurrentTCB )
 2075              		.loc 1 1784 19
 2076 00bc 184B     		ldr	r3, .L128
 2077 00be 1B68     		ldr	r3, [r3]
 2078              		.loc 1 1784 11
 2079 00c0 3A69     		ldr	r2, [r7, #16]
 2080 00c2 9A42     		cmp	r2, r3
 2081 00c4 27D1     		bne	.L127
1785:./Drivers/FreeRTOS/tasks.c ****         {
1786:./Drivers/FreeRTOS/tasks.c ****             if( xSchedulerRunning != pdFALSE )
 2082              		.loc 1 1786 35
 2083 00c6 1A4B     		ldr	r3, .L128+16
 2084 00c8 1B68     		ldr	r3, [r3]
 2085              		.loc 1 1786 15
 2086 00ca 002B     		cmp	r3, #0
 2087 00cc 17D0     		beq	.L123
1787:./Drivers/FreeRTOS/tasks.c ****             {
1788:./Drivers/FreeRTOS/tasks.c ****                 /* The current task has just been suspended. */
1789:./Drivers/FreeRTOS/tasks.c ****                 configASSERT( uxSchedulerSuspended == 0 );
 2088              		.loc 1 1789 17
 2089 00ce 194B     		ldr	r3, .L128+20
 2090 00d0 1B68     		ldr	r3, [r3]
 2091 00d2 002B     		cmp	r3, #0
 2092 00d4 0AD0     		beq	.L124
 2093              	.LBB183:
 2094              	.LBB184:
 198:Drivers/FreeRTOS/portable/GCC/ARM_CM4F/portmacro.h ****         (
 2095              		.loc 2 198 9
 2096              		.syntax unified
 2097              	@ 198 "Drivers/FreeRTOS/portable/GCC/ARM_CM4F/portmacro.h" 1
 2098 00d6 4FF05003 			mov r3, #80												
 2099 00da 83F31188 		msr basepri, r3											
 2100 00de BFF36F8F 		isb														
 2101 00e2 BFF34F8F 		dsb														
 2102              	
 2103              	@ 0 "" 2
 2104              		.thumb
ARM GAS  C:\Users\Benson\AppData\Local\Temp\ccSM8CXv.s 			page 73


 2105              		.syntax unified
 2106 00e6 FB60     		str	r3, [r7, #12]
 206:Drivers/FreeRTOS/portable/GCC/ARM_CM4F/portmacro.h **** 
 2107              		.loc 2 206 5
 2108 00e8 00BF     		nop
 2109              	.L125:
 2110              	.LBE184:
 2111              	.LBE183:
 2112              		.loc 1 1789 17 discriminator 1
 2113 00ea FEE7     		b	.L125
 2114              	.L124:
1790:./Drivers/FreeRTOS/tasks.c ****                 portYIELD_WITHIN_API();
 2115              		.loc 1 1790 17
 2116 00ec 124B     		ldr	r3, .L128+24
 2117 00ee 4FF08052 		mov	r2, #268435456
 2118 00f2 1A60     		str	r2, [r3]
 2119              		.syntax unified
 2120              	@ 1790 "./Drivers/FreeRTOS/tasks.c" 1
 2121 00f4 BFF34F8F 		dsb
 2122              	@ 0 "" 2
 2123              	@ 1790 "./Drivers/FreeRTOS/tasks.c" 1
 2124 00f8 BFF36F8F 		isb
 2125              	@ 0 "" 2
1791:./Drivers/FreeRTOS/tasks.c ****             }
1792:./Drivers/FreeRTOS/tasks.c ****             else
1793:./Drivers/FreeRTOS/tasks.c ****             {
1794:./Drivers/FreeRTOS/tasks.c ****                 /* The scheduler is not running, but the task that was pointed
1795:./Drivers/FreeRTOS/tasks.c ****                  * to by pxCurrentTCB has just been suspended and pxCurrentTCB
1796:./Drivers/FreeRTOS/tasks.c ****                  * must be adjusted to point to a different task. */
1797:./Drivers/FreeRTOS/tasks.c ****                 if( listCURRENT_LIST_LENGTH( &xSuspendedTaskList ) == uxCurrentNumberOfTasks ) /*li
1798:./Drivers/FreeRTOS/tasks.c ****                 {
1799:./Drivers/FreeRTOS/tasks.c ****                     /* No other tasks are ready, so set pxCurrentTCB back to
1800:./Drivers/FreeRTOS/tasks.c ****                      * NULL so when the next task is created pxCurrentTCB will
1801:./Drivers/FreeRTOS/tasks.c ****                      * be set to point to it no matter what its relative priority
1802:./Drivers/FreeRTOS/tasks.c ****                      * is. */
1803:./Drivers/FreeRTOS/tasks.c ****                     pxCurrentTCB = NULL;
1804:./Drivers/FreeRTOS/tasks.c ****                 }
1805:./Drivers/FreeRTOS/tasks.c ****                 else
1806:./Drivers/FreeRTOS/tasks.c ****                 {
1807:./Drivers/FreeRTOS/tasks.c ****                     vTaskSwitchContext();
1808:./Drivers/FreeRTOS/tasks.c ****                 }
1809:./Drivers/FreeRTOS/tasks.c ****             }
1810:./Drivers/FreeRTOS/tasks.c ****         }
1811:./Drivers/FreeRTOS/tasks.c ****         else
1812:./Drivers/FreeRTOS/tasks.c ****         {
1813:./Drivers/FreeRTOS/tasks.c ****             mtCOVERAGE_TEST_MARKER();
1814:./Drivers/FreeRTOS/tasks.c ****         }
1815:./Drivers/FreeRTOS/tasks.c ****     }
 2126              		.loc 1 1815 5
 2127              		.thumb
 2128              		.syntax unified
 2129 00fc 0BE0     		b	.L127
 2130              	.L123:
1797:./Drivers/FreeRTOS/tasks.c ****                 {
 2131              		.loc 1 1797 21
 2132 00fe 0B4B     		ldr	r3, .L128+12
 2133 0100 1A68     		ldr	r2, [r3]
ARM GAS  C:\Users\Benson\AppData\Local\Temp\ccSM8CXv.s 			page 74


1797:./Drivers/FreeRTOS/tasks.c ****                 {
 2134              		.loc 1 1797 68
 2135 0102 0E4B     		ldr	r3, .L128+28
 2136 0104 1B68     		ldr	r3, [r3]
1797:./Drivers/FreeRTOS/tasks.c ****                 {
 2137              		.loc 1 1797 19
 2138 0106 9A42     		cmp	r2, r3
 2139 0108 03D1     		bne	.L126
1803:./Drivers/FreeRTOS/tasks.c ****                 }
 2140              		.loc 1 1803 34
 2141 010a 054B     		ldr	r3, .L128
 2142 010c 0022     		movs	r2, #0
 2143 010e 1A60     		str	r2, [r3]
 2144              		.loc 1 1815 5
 2145 0110 01E0     		b	.L127
 2146              	.L126:
1807:./Drivers/FreeRTOS/tasks.c ****                 }
 2147              		.loc 1 1807 21
 2148 0112 FFF7FEFF 		bl	vTaskSwitchContext
 2149              	.L127:
 2150              		.loc 1 1815 5
 2151 0116 00BF     		nop
 2152 0118 1837     		adds	r7, r7, #24
 2153              	.LCFI53:
 2154              		.cfi_def_cfa_offset 8
 2155 011a BD46     		mov	sp, r7
 2156              	.LCFI54:
 2157              		.cfi_def_cfa_register 13
 2158              		@ sp needed
 2159 011c 80BD     		pop	{r7, pc}
 2160              	.L129:
 2161 011e 00BF     		.align	2
 2162              	.L128:
 2163 0120 00000000 		.word	pxCurrentTCB
 2164 0124 00000000 		.word	pxReadyTasksLists
 2165 0128 00000000 		.word	uxTopReadyPriority
 2166 012c 00000000 		.word	xSuspendedTaskList
 2167 0130 00000000 		.word	xSchedulerRunning
 2168 0134 00000000 		.word	uxSchedulerSuspended
 2169 0138 04ED00E0 		.word	-536810236
 2170 013c 00000000 		.word	uxCurrentNumberOfTasks
 2171              		.cfi_endproc
 2172              	.LFE15:
 2174              		.section	.text.prvTaskIsTaskSuspended,"ax",%progbits
 2175              		.align	1
 2176              		.syntax unified
 2177              		.thumb
 2178              		.thumb_func
 2179              		.fpu fpv4-sp-d16
 2181              	prvTaskIsTaskSuspended:
 2182              	.LFB16:
1816:./Drivers/FreeRTOS/tasks.c **** 
1817:./Drivers/FreeRTOS/tasks.c **** #endif /* INCLUDE_vTaskSuspend */
1818:./Drivers/FreeRTOS/tasks.c **** /*-----------------------------------------------------------*/
1819:./Drivers/FreeRTOS/tasks.c **** 
1820:./Drivers/FreeRTOS/tasks.c **** #if ( INCLUDE_vTaskSuspend == 1 )
1821:./Drivers/FreeRTOS/tasks.c **** 
ARM GAS  C:\Users\Benson\AppData\Local\Temp\ccSM8CXv.s 			page 75


1822:./Drivers/FreeRTOS/tasks.c ****     static BaseType_t prvTaskIsTaskSuspended( const TaskHandle_t xTask )
1823:./Drivers/FreeRTOS/tasks.c ****     {
 2183              		.loc 1 1823 5
 2184              		.cfi_startproc
 2185              		@ args = 0, pretend = 0, frame = 24
 2186              		@ frame_needed = 1, uses_anonymous_args = 0
